
test_mul.elf:     file format elf32-littleriscv


Disassembly of section .vectors:

00000000 <_stack_start-0xfffc>:
   0:	00000013          	nop
   4:	00000013          	nop
   8:	00000013          	nop
   c:	00000013          	nop

  // external interrupts are handled by the same callback
  // until compiler supports IRQ routines
  .org 0x00
  .rept 31
  nop
  10:	00000013          	nop
  14:	00000013          	nop
  18:	00000013          	nop
  1c:	00000013          	nop
  20:	00000013          	nop
  24:	00000013          	nop
  28:	00000013          	nop
  2c:	00000013          	nop
  30:	00000013          	nop
  34:	00000013          	nop
  38:	00000013          	nop
  3c:	00000013          	nop
  40:	00000013          	nop
  44:	00000013          	nop
  48:	00000013          	nop
  4c:	00000013          	nop
  50:	00000013          	nop
  54:	00000013          	nop
  58:	00000013          	nop
  5c:	00000013          	nop
  60:	00000013          	nop
  64:	00000013          	nop
  68:	00000013          	nop
  6c:	00000013          	nop
  70:	00000013          	nop
  74:	00000013          	nop
  78:	00000013          	nop
  .endr
  jal x0, default_exc_handler
  7c:	0100006f          	j	8c <_stext>

  // reset vector
  .org 0x80
  jal x0, reset_handler
  80:	0100006f          	j	90 <reset_handler>

  // illegal instruction exception
  .org 0x84
  jal x0, default_exc_handler
  84:	0080006f          	j	8c <_stext>

  // ecall handler
  .org 0x88
  jal x0, default_exc_handler
  88:	0040006f          	j	8c <_stext>

Disassembly of section .text:

0000008c <_stext>:
  jal x0, default_exc_handler
      8c:	0000006f          	j	8c <_stext>

00000090 <reset_handler>:
  mv  x1, x0
      90:	00000093          	li	ra,0
  mv  x2, x1
      94:	00008113          	mv	sp,ra
  mv  x3, x1
      98:	00008193          	mv	gp,ra
  mv  x4, x1
      9c:	00008213          	mv	tp,ra
  mv  x5, x1
      a0:	00008293          	mv	t0,ra
  mv  x6, x1
      a4:	00008313          	mv	t1,ra
  mv  x7, x1
      a8:	00008393          	mv	t2,ra
  mv  x8, x1
      ac:	00008413          	mv	s0,ra
  mv  x9, x1
      b0:	00008493          	mv	s1,ra
  mv x10, x1
      b4:	00008513          	mv	a0,ra
  mv x11, x1
      b8:	00008593          	mv	a1,ra
  mv x12, x1
      bc:	00008613          	mv	a2,ra
  mv x13, x1
      c0:	00008693          	mv	a3,ra
  mv x14, x1
      c4:	00008713          	mv	a4,ra
  mv x15, x1
      c8:	00008793          	mv	a5,ra
  mv x16, x1
      cc:	00008813          	mv	a6,ra
  mv x17, x1
      d0:	00008893          	mv	a7,ra
  mv x18, x1
      d4:	00008913          	mv	s2,ra
  mv x19, x1
      d8:	00008993          	mv	s3,ra
  mv x20, x1
      dc:	00008a13          	mv	s4,ra
  mv x21, x1
      e0:	00008a93          	mv	s5,ra
  mv x22, x1
      e4:	00008b13          	mv	s6,ra
  mv x23, x1
      e8:	00008b93          	mv	s7,ra
  mv x24, x1
      ec:	00008c13          	mv	s8,ra
  mv x25, x1
      f0:	00008c93          	mv	s9,ra
  mv x26, x1
      f4:	00008d13          	mv	s10,ra
  mv x27, x1
      f8:	00008d93          	mv	s11,ra
  mv x28, x1
      fc:	00008e13          	mv	t3,ra
  mv x29, x1
     100:	00008e93          	mv	t4,ra
  mv x30, x1
     104:	00008f13          	mv	t5,ra
  mv x31, x1
     108:	00008f93          	mv	t6,ra
  la   x2, _stack_start
     10c:	00010117          	auipc	sp,0x10
     110:	ef010113          	addi	sp,sp,-272 # fffc <_stack_start>

00000114 <_start>:
  la x26, _bss_start
     114:	00004d17          	auipc	s10,0x4
     118:	24cd0d13          	addi	s10,s10,588 # 4360 <_bss_end>
  la x27, _bss_end
     11c:	00004d97          	auipc	s11,0x4
     120:	244d8d93          	addi	s11,s11,580 # 4360 <_bss_end>
  bge x26, x27, zero_loop_end
     124:	01bd5863          	bge	s10,s11,134 <main_entry>

00000128 <zero_loop>:
  sw x0, 0(x26)
     128:	000d2023          	sw	zero,0(s10)
  addi x26, x26, 4
     12c:	004d0d13          	addi	s10,s10,4
  ble x26, x27, zero_loop
     130:	ffaddce3          	bge	s11,s10,128 <zero_loop>

00000134 <main_entry>:
  addi x10, x0, 0
     134:	00000513          	li	a0,0
  addi x11, x0, 0
     138:	00000593          	li	a1,0
  jal x1, main
     13c:	0e0000ef          	jal	21c <main>

00000140 <memset>:
     140:	00f00313          	li	t1,15
     144:	00050713          	mv	a4,a0
     148:	02c37e63          	bgeu	t1,a2,184 <memset+0x44>
     14c:	00f77793          	andi	a5,a4,15
     150:	0a079063          	bnez	a5,1f0 <memset+0xb0>
     154:	08059263          	bnez	a1,1d8 <memset+0x98>
     158:	ff067693          	andi	a3,a2,-16
     15c:	00f67613          	andi	a2,a2,15
     160:	00e686b3          	add	a3,a3,a4
     164:	00b72023          	sw	a1,0(a4)
     168:	00b72223          	sw	a1,4(a4)
     16c:	00b72423          	sw	a1,8(a4)
     170:	00b72623          	sw	a1,12(a4)
     174:	01070713          	addi	a4,a4,16
     178:	fed766e3          	bltu	a4,a3,164 <memset+0x24>
     17c:	00061463          	bnez	a2,184 <memset+0x44>
     180:	00008067          	ret
     184:	40c306b3          	sub	a3,t1,a2
     188:	00269693          	slli	a3,a3,0x2
     18c:	00000297          	auipc	t0,0x0
     190:	005686b3          	add	a3,a3,t0
     194:	00c68067          	jr	12(a3)
     198:	00b70723          	sb	a1,14(a4)
     19c:	00b706a3          	sb	a1,13(a4)
     1a0:	00b70623          	sb	a1,12(a4)
     1a4:	00b705a3          	sb	a1,11(a4)
     1a8:	00b70523          	sb	a1,10(a4)
     1ac:	00b704a3          	sb	a1,9(a4)
     1b0:	00b70423          	sb	a1,8(a4)
     1b4:	00b703a3          	sb	a1,7(a4)
     1b8:	00b70323          	sb	a1,6(a4)
     1bc:	00b702a3          	sb	a1,5(a4)
     1c0:	00b70223          	sb	a1,4(a4)
     1c4:	00b701a3          	sb	a1,3(a4)
     1c8:	00b70123          	sb	a1,2(a4)
     1cc:	00b700a3          	sb	a1,1(a4)
     1d0:	00b70023          	sb	a1,0(a4)
     1d4:	00008067          	ret
     1d8:	0ff5f593          	zext.b	a1,a1
     1dc:	00859693          	slli	a3,a1,0x8
     1e0:	00d5e5b3          	or	a1,a1,a3
     1e4:	01059693          	slli	a3,a1,0x10
     1e8:	00d5e5b3          	or	a1,a1,a3
     1ec:	f6dff06f          	j	158 <memset+0x18>
     1f0:	00279693          	slli	a3,a5,0x2
     1f4:	00000297          	auipc	t0,0x0
     1f8:	005686b3          	add	a3,a3,t0
     1fc:	00008293          	mv	t0,ra
     200:	fa0680e7          	jalr	-96(a3)
     204:	00028093          	mv	ra,t0
     208:	ff078793          	addi	a5,a5,-16
     20c:	40f70733          	sub	a4,a4,a5
     210:	00f60633          	add	a2,a2,a5
     214:	f6c378e3          	bgeu	t1,a2,184 <memset+0x44>
     218:	f3dff06f          	j	154 <memset+0x14>

0000021c <main>:
 */
#define MLEN 59
#define NTESTS 1

int main(void)
{
     21c:	c1010113          	addi	sp,sp,-1008
     220:	3e112623          	sw	ra,1004(sp)
     224:	3e812423          	sw	s0,1000(sp)
     228:	3e912223          	sw	s1,996(sp)
     22c:	80010113          	addi	sp,sp,-2048
     230:	80010113          	addi	sp,sp,-2048
  volatile uint8_t *addr = (uint8_t *) GPIO_BASE;
  unsigned int i, j;
  int ret;
  size_t mlen, smlen;
  uint8_t m[MLEN] = {0};
     234:	000014b7          	lui	s1,0x1
     238:	3a048793          	addi	a5,s1,928 # 13a0 <pqcrystals_dilithium2_ref_polyz_pack+0xc>
     23c:	00f10433          	add	s0,sp,a5
     240:	03b00613          	li	a2,59
     244:	00000593          	li	a1,0
     248:	00040513          	mv	a0,s0
     24c:	ef5ff0ef          	jal	140 <memset>
  uint8_t sm[MLEN + CRYPTO_BYTES];
  uint8_t m2[MLEN + CRYPTO_BYTES];
  uint8_t pk[CRYPTO_PUBLICKEYBYTES];
  uint8_t sk[CRYPTO_SECRETKEYBYTES]= {0};;
     250:	9f048613          	addi	a2,s1,-1552
     254:	00000593          	li	a1,0
     258:	00010513          	mv	a0,sp
     25c:	ee5ff0ef          	jal	140 <memset>
  *addr = 12;
     260:	100007b7          	lui	a5,0x10000
     264:	00c00713          	li	a4,12
     268:	00e78223          	sb	a4,4(a5) # 10000004 <_stack_start+0xfff0008>
  for(i = 0; i < NTESTS; ++i) {
    crypto_sign(sm, &smlen, m, MLEN, sk);
     26c:	00010713          	mv	a4,sp
     270:	03b00693          	li	a3,59
     274:	00040613          	mv	a2,s0
     278:	3dc48793          	addi	a5,s1,988
     27c:	00f105b3          	add	a1,sp,a5
     280:	7ff10513          	addi	a0,sp,2047
     284:	3e150513          	addi	a0,a0,993
     288:	e1050513          	addi	a0,a0,-496
     28c:	009030ef          	jal	3a94 <pqcrystals_dilithium2_ref>
    for (j = 0; j < smlen; j++) {
     290:	3dc48793          	addi	a5,s1,988
     294:	002787b3          	add	a5,a5,sp
     298:	0007a783          	lw	a5,0(a5)
     29c:	04078063          	beqz	a5,2dc <main+0xc0>
     2a0:	7ff10793          	addi	a5,sp,2047
     2a4:	3e178793          	addi	a5,a5,993
     2a8:	e1078793          	addi	a5,a5,-496
     2ac:	00000713          	li	a4,0
      *addr = sm[j];   // her byte’ı sırayla yaz
     2b0:	10000637          	lui	a2,0x10000
     2b4:	00460613          	addi	a2,a2,4 # 10000004 <_stack_start+0xfff0008>
     2b8:	0007c683          	lbu	a3,0(a5)
     2bc:	00d60023          	sb	a3,0(a2)
    for (j = 0; j < smlen; j++) {
     2c0:	00170713          	addi	a4,a4,1
     2c4:	00178793          	addi	a5,a5,1
     2c8:	000016b7          	lui	a3,0x1
     2cc:	3dc68693          	addi	a3,a3,988 # 13dc <pqcrystals_dilithium2_ref_polyz_pack+0x48>
     2d0:	002686b3          	add	a3,a3,sp
     2d4:	0006a683          	lw	a3,0(a3)
     2d8:	fed760e3          	bltu	a4,a3,2b8 <main+0x9c>
    }

  }

  return 0;
}
     2dc:	00000513          	li	a0,0
     2e0:	000012b7          	lui	t0,0x1
     2e4:	00510133          	add	sp,sp,t0
     2e8:	3ec12083          	lw	ra,1004(sp)
     2ec:	3e812403          	lw	s0,1000(sp)
     2f0:	3e412483          	lw	s1,996(sp)
     2f4:	3f010113          	addi	sp,sp,1008
     2f8:	00008067          	ret

000002fc <pqcrystals_dilithium2_ref_polyvec_matrix_expand>:
*              or AES256CTR(rho,j|i).
*
* Arguments:   - polyvecl mat[K]: output matrix
*              - const uint8_t rho[]: byte array containing seed rho
**************************************************/
void polyvec_matrix_expand(polyvecl mat[K], const uint8_t rho[SEEDBYTES]) {
     2fc:	fd010113          	addi	sp,sp,-48
     300:	02112623          	sw	ra,44(sp)
     304:	02812423          	sw	s0,40(sp)
     308:	02912223          	sw	s1,36(sp)
     30c:	03212023          	sw	s2,32(sp)
     310:	01312e23          	sw	s3,28(sp)
     314:	01412c23          	sw	s4,24(sp)
     318:	01512a23          	sw	s5,20(sp)
     31c:	01612823          	sw	s6,16(sp)
     320:	01712623          	sw	s7,12(sp)
     324:	00058a13          	mv	s4,a1
  unsigned int i, j;

  for(i = 0; i < K; ++i)
     328:	000017b7          	lui	a5,0x1
     32c:	00f50933          	add	s2,a0,a5
void polyvec_matrix_expand(polyvecl mat[K], const uint8_t rho[SEEDBYTES]) {
     330:	00000993          	li	s3,0
     334:	fffffbb7          	lui	s7,0xfffff
  for(i = 0; i < K; ++i)
     338:	00078b13          	mv	s6,a5
     33c:	40000a93          	li	s5,1024
    for(j = 0; j < L; ++j)
     340:	017904b3          	add	s1,s2,s7
void polyvec_matrix_expand(polyvecl mat[K], const uint8_t rho[SEEDBYTES]) {
     344:	00098413          	mv	s0,s3
      poly_uniform(&mat[i].vec[j], rho, (i << 8) + j);
     348:	00040613          	mv	a2,s0
     34c:	000a0593          	mv	a1,s4
     350:	00048513          	mv	a0,s1
     354:	2e1000ef          	jal	e34 <pqcrystals_dilithium2_ref_poly_uniform>
    for(j = 0; j < L; ++j)
     358:	40048493          	addi	s1,s1,1024
     35c:	00140413          	addi	s0,s0,1
     360:	01041413          	slli	s0,s0,0x10
     364:	01045413          	srli	s0,s0,0x10
     368:	ff2490e3          	bne	s1,s2,348 <pqcrystals_dilithium2_ref_polyvec_matrix_expand+0x4c>
  for(i = 0; i < K; ++i)
     36c:	10098993          	addi	s3,s3,256
     370:	01099993          	slli	s3,s3,0x10
     374:	0109d993          	srli	s3,s3,0x10
     378:	01690933          	add	s2,s2,s6
     37c:	fd5992e3          	bne	s3,s5,340 <pqcrystals_dilithium2_ref_polyvec_matrix_expand+0x44>
}
     380:	02c12083          	lw	ra,44(sp)
     384:	02812403          	lw	s0,40(sp)
     388:	02412483          	lw	s1,36(sp)
     38c:	02012903          	lw	s2,32(sp)
     390:	01c12983          	lw	s3,28(sp)
     394:	01812a03          	lw	s4,24(sp)
     398:	01412a83          	lw	s5,20(sp)
     39c:	01012b03          	lw	s6,16(sp)
     3a0:	00c12b83          	lw	s7,12(sp)
     3a4:	03010113          	addi	sp,sp,48
     3a8:	00008067          	ret

000003ac <pqcrystals_dilithium2_ref_polyvecl_uniform_gamma1>:

  for(i = 0; i < L; ++i)
    poly_uniform_eta(&v->vec[i], seed, nonce++);
}

void polyvecl_uniform_gamma1(polyvecl *v, const uint8_t seed[SEEDBYTES], uint16_t nonce) {
     3ac:	fe010113          	addi	sp,sp,-32
     3b0:	00112e23          	sw	ra,28(sp)
     3b4:	00812c23          	sw	s0,24(sp)
     3b8:	00912a23          	sw	s1,20(sp)
     3bc:	01212823          	sw	s2,16(sp)
     3c0:	01312623          	sw	s3,12(sp)
     3c4:	00058993          	mv	s3,a1
  unsigned int i;

  for(i = 0; i < L; ++i)
    poly_uniform_gamma1(&v->vec[i], seed, L*nonce + i);
     3c8:	00261413          	slli	s0,a2,0x2
     3cc:	01041413          	slli	s0,s0,0x10
     3d0:	01045413          	srli	s0,s0,0x10
     3d4:	00050493          	mv	s1,a0
     3d8:	000017b7          	lui	a5,0x1
     3dc:	00f50933          	add	s2,a0,a5
     3e0:	00040613          	mv	a2,s0
     3e4:	00098593          	mv	a1,s3
     3e8:	00048513          	mv	a0,s1
     3ec:	138010ef          	jal	1524 <pqcrystals_dilithium2_ref_poly_uniform_gamma1>
  for(i = 0; i < L; ++i)
     3f0:	40048493          	addi	s1,s1,1024
     3f4:	00140413          	addi	s0,s0,1
     3f8:	01041413          	slli	s0,s0,0x10
     3fc:	01045413          	srli	s0,s0,0x10
     400:	ff2490e3          	bne	s1,s2,3e0 <pqcrystals_dilithium2_ref_polyvecl_uniform_gamma1+0x34>
}
     404:	01c12083          	lw	ra,28(sp)
     408:	01812403          	lw	s0,24(sp)
     40c:	01412483          	lw	s1,20(sp)
     410:	01012903          	lw	s2,16(sp)
     414:	00c12983          	lw	s3,12(sp)
     418:	02010113          	addi	sp,sp,32
     41c:	00008067          	ret

00000420 <pqcrystals_dilithium2_ref_polyvecl_reduce>:

void polyvecl_reduce(polyvecl *v) {
     420:	ff010113          	addi	sp,sp,-16
     424:	00112623          	sw	ra,12(sp)
     428:	00812423          	sw	s0,8(sp)
     42c:	00912223          	sw	s1,4(sp)
     430:	00050413          	mv	s0,a0
  unsigned int i;

  for(i = 0; i < L; ++i)
     434:	000014b7          	lui	s1,0x1
     438:	009504b3          	add	s1,a0,s1
    poly_reduce(&v->vec[i]);
     43c:	00040513          	mv	a0,s0
     440:	70c000ef          	jal	b4c <pqcrystals_dilithium2_ref_poly_reduce>
  for(i = 0; i < L; ++i)
     444:	40040413          	addi	s0,s0,1024
     448:	fe941ae3          	bne	s0,s1,43c <pqcrystals_dilithium2_ref_polyvecl_reduce+0x1c>
}
     44c:	00c12083          	lw	ra,12(sp)
     450:	00812403          	lw	s0,8(sp)
     454:	00412483          	lw	s1,4(sp)
     458:	01010113          	addi	sp,sp,16
     45c:	00008067          	ret

00000460 <pqcrystals_dilithium2_ref_polyvecl_add>:
*
* Arguments:   - polyvecl *w: pointer to output vector
*              - const polyvecl *u: pointer to first summand
*              - const polyvecl *v: pointer to second summand
**************************************************/
void polyvecl_add(polyvecl *w, const polyvecl *u, const polyvecl *v) {
     460:	fe010113          	addi	sp,sp,-32
     464:	00112e23          	sw	ra,28(sp)
     468:	00812c23          	sw	s0,24(sp)
     46c:	00912a23          	sw	s1,20(sp)
     470:	01212823          	sw	s2,16(sp)
     474:	01312623          	sw	s3,12(sp)
     478:	01412423          	sw	s4,8(sp)
     47c:	00050993          	mv	s3,a0
     480:	00058913          	mv	s2,a1
     484:	00060493          	mv	s1,a2
     488:	00000413          	li	s0,0
  unsigned int i;

  for(i = 0; i < L; ++i)
     48c:	00001a37          	lui	s4,0x1
    poly_add(&w->vec[i], &u->vec[i], &v->vec[i]);
     490:	00848633          	add	a2,s1,s0
     494:	008905b3          	add	a1,s2,s0
     498:	00898533          	add	a0,s3,s0
     49c:	730000ef          	jal	bcc <pqcrystals_dilithium2_ref_poly_add>
  for(i = 0; i < L; ++i)
     4a0:	40040413          	addi	s0,s0,1024
     4a4:	ff4416e3          	bne	s0,s4,490 <pqcrystals_dilithium2_ref_polyvecl_add+0x30>
}
     4a8:	01c12083          	lw	ra,28(sp)
     4ac:	01812403          	lw	s0,24(sp)
     4b0:	01412483          	lw	s1,20(sp)
     4b4:	01012903          	lw	s2,16(sp)
     4b8:	00c12983          	lw	s3,12(sp)
     4bc:	00812a03          	lw	s4,8(sp)
     4c0:	02010113          	addi	sp,sp,32
     4c4:	00008067          	ret

000004c8 <pqcrystals_dilithium2_ref_polyvecl_ntt>:
* Description: Forward NTT of all polynomials in vector of length L. Output
*              coefficients can be up to 16*Q larger than input coefficients.
*
* Arguments:   - polyvecl *v: pointer to input/output vector
**************************************************/
void polyvecl_ntt(polyvecl *v) {
     4c8:	ff010113          	addi	sp,sp,-16
     4cc:	00112623          	sw	ra,12(sp)
     4d0:	00812423          	sw	s0,8(sp)
     4d4:	00912223          	sw	s1,4(sp)
     4d8:	00050413          	mv	s0,a0
  unsigned int i;

  for(i = 0; i < L; ++i)
     4dc:	000014b7          	lui	s1,0x1
     4e0:	009504b3          	add	s1,a0,s1
    poly_ntt(&v->vec[i]);
     4e4:	00040513          	mv	a0,s0
     4e8:	744000ef          	jal	c2c <pqcrystals_dilithium2_ref_poly_ntt>
  for(i = 0; i < L; ++i)
     4ec:	40040413          	addi	s0,s0,1024
     4f0:	fe941ae3          	bne	s0,s1,4e4 <pqcrystals_dilithium2_ref_polyvecl_ntt+0x1c>
}
     4f4:	00c12083          	lw	ra,12(sp)
     4f8:	00812403          	lw	s0,8(sp)
     4fc:	00412483          	lw	s1,4(sp)
     500:	01010113          	addi	sp,sp,16
     504:	00008067          	ret

00000508 <pqcrystals_dilithium2_ref_polyvecl_invntt_tomont>:

void polyvecl_invntt_tomont(polyvecl *v) {
     508:	ff010113          	addi	sp,sp,-16
     50c:	00112623          	sw	ra,12(sp)
     510:	00812423          	sw	s0,8(sp)
     514:	00912223          	sw	s1,4(sp)
     518:	00050413          	mv	s0,a0
  unsigned int i;

  for(i = 0; i < L; ++i)
     51c:	000014b7          	lui	s1,0x1
     520:	009504b3          	add	s1,a0,s1
    poly_invntt_tomont(&v->vec[i]);
     524:	00040513          	mv	a0,s0
     528:	71c000ef          	jal	c44 <pqcrystals_dilithium2_ref_poly_invntt_tomont>
  for(i = 0; i < L; ++i)
     52c:	40040413          	addi	s0,s0,1024
     530:	fe941ae3          	bne	s0,s1,524 <pqcrystals_dilithium2_ref_polyvecl_invntt_tomont+0x1c>
}
     534:	00c12083          	lw	ra,12(sp)
     538:	00812403          	lw	s0,8(sp)
     53c:	00412483          	lw	s1,4(sp)
     540:	01010113          	addi	sp,sp,16
     544:	00008067          	ret

00000548 <pqcrystals_dilithium2_ref_polyvecl_pointwise_poly_montgomery>:

void polyvecl_pointwise_poly_montgomery(polyvecl *r, const poly *a, const polyvecl *v) {
     548:	fe010113          	addi	sp,sp,-32
     54c:	00112e23          	sw	ra,28(sp)
     550:	00812c23          	sw	s0,24(sp)
     554:	00912a23          	sw	s1,20(sp)
     558:	01212823          	sw	s2,16(sp)
     55c:	01312623          	sw	s3,12(sp)
     560:	01412423          	sw	s4,8(sp)
     564:	00050993          	mv	s3,a0
     568:	00058913          	mv	s2,a1
     56c:	00060493          	mv	s1,a2
     570:	00000413          	li	s0,0
  unsigned int i;

  for(i = 0; i < L; ++i)
     574:	00001a37          	lui	s4,0x1
    poly_pointwise_montgomery(&r->vec[i], a, &v->vec[i]);
     578:	00848633          	add	a2,s1,s0
     57c:	00090593          	mv	a1,s2
     580:	00898533          	add	a0,s3,s0
     584:	6d8000ef          	jal	c5c <pqcrystals_dilithium2_ref_poly_pointwise_montgomery>
  for(i = 0; i < L; ++i)
     588:	40040413          	addi	s0,s0,1024
     58c:	ff4416e3          	bne	s0,s4,578 <pqcrystals_dilithium2_ref_polyvecl_pointwise_poly_montgomery+0x30>
}
     590:	01c12083          	lw	ra,28(sp)
     594:	01812403          	lw	s0,24(sp)
     598:	01412483          	lw	s1,20(sp)
     59c:	01012903          	lw	s2,16(sp)
     5a0:	00c12983          	lw	s3,12(sp)
     5a4:	00812a03          	lw	s4,8(sp)
     5a8:	02010113          	addi	sp,sp,32
     5ac:	00008067          	ret

000005b0 <pqcrystals_dilithium2_ref_polyvecl_pointwise_acc_montgomery>:
*              - const polyvecl *v: pointer to second input vector
**************************************************/
void polyvecl_pointwise_acc_montgomery(poly *w,
                                       const polyvecl *u,
                                       const polyvecl *v)
{
     5b0:	be010113          	addi	sp,sp,-1056
     5b4:	40112e23          	sw	ra,1052(sp)
     5b8:	40812c23          	sw	s0,1048(sp)
     5bc:	40912a23          	sw	s1,1044(sp)
     5c0:	41212823          	sw	s2,1040(sp)
     5c4:	41312623          	sw	s3,1036(sp)
     5c8:	41412423          	sw	s4,1032(sp)
     5cc:	00050993          	mv	s3,a0
     5d0:	00058913          	mv	s2,a1
     5d4:	00060413          	mv	s0,a2
  unsigned int i;
  poly t;

  poly_pointwise_montgomery(w, &u->vec[0], &v->vec[0]);
     5d8:	684000ef          	jal	c5c <pqcrystals_dilithium2_ref_poly_pointwise_montgomery>
  for(i = 1; i < L; ++i) {
     5dc:	40090493          	addi	s1,s2,1024
     5e0:	40040413          	addi	s0,s0,1024
     5e4:	000017b7          	lui	a5,0x1
     5e8:	00f90933          	add	s2,s2,a5
    poly_pointwise_montgomery(&t, &u->vec[i], &v->vec[i]);
     5ec:	00010a13          	mv	s4,sp
     5f0:	00040613          	mv	a2,s0
     5f4:	00048593          	mv	a1,s1
     5f8:	000a0513          	mv	a0,s4
     5fc:	660000ef          	jal	c5c <pqcrystals_dilithium2_ref_poly_pointwise_montgomery>
    poly_add(w, w, &t);
     600:	000a0613          	mv	a2,s4
     604:	00098593          	mv	a1,s3
     608:	00098513          	mv	a0,s3
     60c:	5c0000ef          	jal	bcc <pqcrystals_dilithium2_ref_poly_add>
  for(i = 1; i < L; ++i) {
     610:	40048493          	addi	s1,s1,1024 # 1400 <pqcrystals_dilithium2_ref_polyz_pack+0x6c>
     614:	40040413          	addi	s0,s0,1024
     618:	fd249ce3          	bne	s1,s2,5f0 <pqcrystals_dilithium2_ref_polyvecl_pointwise_acc_montgomery+0x40>
  }
}
     61c:	41c12083          	lw	ra,1052(sp)
     620:	41812403          	lw	s0,1048(sp)
     624:	41412483          	lw	s1,1044(sp)
     628:	41012903          	lw	s2,1040(sp)
     62c:	40c12983          	lw	s3,1036(sp)
     630:	40812a03          	lw	s4,1032(sp)
     634:	42010113          	addi	sp,sp,1056
     638:	00008067          	ret

0000063c <pqcrystals_dilithium2_ref_polyvec_matrix_pointwise_montgomery>:
void polyvec_matrix_pointwise_montgomery(polyveck *t, const polyvecl mat[K], const polyvecl *v) {
     63c:	fe010113          	addi	sp,sp,-32
     640:	00112e23          	sw	ra,28(sp)
     644:	00812c23          	sw	s0,24(sp)
     648:	00912a23          	sw	s1,20(sp)
     64c:	01212823          	sw	s2,16(sp)
     650:	01312623          	sw	s3,12(sp)
     654:	01412423          	sw	s4,8(sp)
     658:	00060993          	mv	s3,a2
  for(i = 0; i < K; ++i)
     65c:	00050413          	mv	s0,a0
     660:	00058493          	mv	s1,a1
     664:	000017b7          	lui	a5,0x1
     668:	00f50933          	add	s2,a0,a5
     66c:	00078a13          	mv	s4,a5
    polyvecl_pointwise_acc_montgomery(&t->vec[i], &mat[i], v);
     670:	00098613          	mv	a2,s3
     674:	00048593          	mv	a1,s1
     678:	00040513          	mv	a0,s0
     67c:	f35ff0ef          	jal	5b0 <pqcrystals_dilithium2_ref_polyvecl_pointwise_acc_montgomery>
  for(i = 0; i < K; ++i)
     680:	40040413          	addi	s0,s0,1024
     684:	014484b3          	add	s1,s1,s4
     688:	ff2414e3          	bne	s0,s2,670 <pqcrystals_dilithium2_ref_polyvec_matrix_pointwise_montgomery+0x34>
}
     68c:	01c12083          	lw	ra,28(sp)
     690:	01812403          	lw	s0,24(sp)
     694:	01412483          	lw	s1,20(sp)
     698:	01012903          	lw	s2,16(sp)
     69c:	00c12983          	lw	s3,12(sp)
     6a0:	00812a03          	lw	s4,8(sp)
     6a4:	02010113          	addi	sp,sp,32
     6a8:	00008067          	ret

000006ac <pqcrystals_dilithium2_ref_polyvecl_chknorm>:
*              - int32_t B: norm bound
*
* Returns 0 if norm of all polynomials is strictly smaller than B <= (Q-1)/8
* and 1 otherwise.
**************************************************/
int polyvecl_chknorm(const polyvecl *v, int32_t bound)  {
     6ac:	ff010113          	addi	sp,sp,-16
     6b0:	00112623          	sw	ra,12(sp)
     6b4:	00812423          	sw	s0,8(sp)
     6b8:	00912223          	sw	s1,4(sp)
     6bc:	01212023          	sw	s2,0(sp)
     6c0:	00058913          	mv	s2,a1
  unsigned int i;

  for(i = 0; i < L; ++i)
     6c4:	00050413          	mv	s0,a0
     6c8:	000017b7          	lui	a5,0x1
     6cc:	00f504b3          	add	s1,a0,a5
    if(poly_chknorm(&v->vec[i], bound))
     6d0:	00090593          	mv	a1,s2
     6d4:	00040513          	mv	a0,s0
     6d8:	710000ef          	jal	de8 <pqcrystals_dilithium2_ref_poly_chknorm>
     6dc:	02051263          	bnez	a0,700 <pqcrystals_dilithium2_ref_polyvecl_chknorm+0x54>
  for(i = 0; i < L; ++i)
     6e0:	40040413          	addi	s0,s0,1024
     6e4:	fe9416e3          	bne	s0,s1,6d0 <pqcrystals_dilithium2_ref_polyvecl_chknorm+0x24>
      return 1;

  return 0;
}
     6e8:	00c12083          	lw	ra,12(sp)
     6ec:	00812403          	lw	s0,8(sp)
     6f0:	00412483          	lw	s1,4(sp)
     6f4:	00012903          	lw	s2,0(sp)
     6f8:	01010113          	addi	sp,sp,16
     6fc:	00008067          	ret
      return 1;
     700:	00100513          	li	a0,1
     704:	fe5ff06f          	j	6e8 <pqcrystals_dilithium2_ref_polyvecl_chknorm+0x3c>

00000708 <pqcrystals_dilithium2_ref_polyveck_reduce>:
* Description: Reduce coefficients of polynomials in vector of length K
*              to representatives in [-6283009,6283007].
*
* Arguments:   - polyveck *v: pointer to input/output vector
**************************************************/
void polyveck_reduce(polyveck *v) {
     708:	ff010113          	addi	sp,sp,-16
     70c:	00112623          	sw	ra,12(sp)
     710:	00812423          	sw	s0,8(sp)
     714:	00912223          	sw	s1,4(sp)
     718:	00050413          	mv	s0,a0
  unsigned int i;

  for(i = 0; i < K; ++i)
     71c:	000014b7          	lui	s1,0x1
     720:	009504b3          	add	s1,a0,s1
    poly_reduce(&v->vec[i]);
     724:	00040513          	mv	a0,s0
     728:	424000ef          	jal	b4c <pqcrystals_dilithium2_ref_poly_reduce>
  for(i = 0; i < K; ++i)
     72c:	40040413          	addi	s0,s0,1024
     730:	fe941ae3          	bne	s0,s1,724 <pqcrystals_dilithium2_ref_polyveck_reduce+0x1c>
}
     734:	00c12083          	lw	ra,12(sp)
     738:	00812403          	lw	s0,8(sp)
     73c:	00412483          	lw	s1,4(sp)
     740:	01010113          	addi	sp,sp,16
     744:	00008067          	ret

00000748 <pqcrystals_dilithium2_ref_polyveck_caddq>:
* Description: For all coefficients of polynomials in vector of length K
*              add Q if coefficient is negative.
*
* Arguments:   - polyveck *v: pointer to input/output vector
**************************************************/
void polyveck_caddq(polyveck *v) {
     748:	ff010113          	addi	sp,sp,-16
     74c:	00112623          	sw	ra,12(sp)
     750:	00812423          	sw	s0,8(sp)
     754:	00912223          	sw	s1,4(sp)
     758:	00050413          	mv	s0,a0
  unsigned int i;

  for(i = 0; i < K; ++i)
     75c:	000014b7          	lui	s1,0x1
     760:	009504b3          	add	s1,a0,s1
    poly_caddq(&v->vec[i]);
     764:	00040513          	mv	a0,s0
     768:	424000ef          	jal	b8c <pqcrystals_dilithium2_ref_poly_caddq>
  for(i = 0; i < K; ++i)
     76c:	40040413          	addi	s0,s0,1024
     770:	fe941ae3          	bne	s0,s1,764 <pqcrystals_dilithium2_ref_polyveck_caddq+0x1c>
}
     774:	00c12083          	lw	ra,12(sp)
     778:	00812403          	lw	s0,8(sp)
     77c:	00412483          	lw	s1,4(sp)
     780:	01010113          	addi	sp,sp,16
     784:	00008067          	ret

00000788 <pqcrystals_dilithium2_ref_polyveck_add>:
*
* Arguments:   - polyveck *w: pointer to output vector
*              - const polyveck *u: pointer to first summand
*              - const polyveck *v: pointer to second summand
**************************************************/
void polyveck_add(polyveck *w, const polyveck *u, const polyveck *v) {
     788:	fe010113          	addi	sp,sp,-32
     78c:	00112e23          	sw	ra,28(sp)
     790:	00812c23          	sw	s0,24(sp)
     794:	00912a23          	sw	s1,20(sp)
     798:	01212823          	sw	s2,16(sp)
     79c:	01312623          	sw	s3,12(sp)
     7a0:	01412423          	sw	s4,8(sp)
     7a4:	00050993          	mv	s3,a0
     7a8:	00058913          	mv	s2,a1
     7ac:	00060493          	mv	s1,a2
     7b0:	00000413          	li	s0,0
  unsigned int i;

  for(i = 0; i < K; ++i)
     7b4:	00001a37          	lui	s4,0x1
    poly_add(&w->vec[i], &u->vec[i], &v->vec[i]);
     7b8:	00848633          	add	a2,s1,s0
     7bc:	008905b3          	add	a1,s2,s0
     7c0:	00898533          	add	a0,s3,s0
     7c4:	408000ef          	jal	bcc <pqcrystals_dilithium2_ref_poly_add>
  for(i = 0; i < K; ++i)
     7c8:	40040413          	addi	s0,s0,1024
     7cc:	ff4416e3          	bne	s0,s4,7b8 <pqcrystals_dilithium2_ref_polyveck_add+0x30>
}
     7d0:	01c12083          	lw	ra,28(sp)
     7d4:	01812403          	lw	s0,24(sp)
     7d8:	01412483          	lw	s1,20(sp)
     7dc:	01012903          	lw	s2,16(sp)
     7e0:	00c12983          	lw	s3,12(sp)
     7e4:	00812a03          	lw	s4,8(sp)
     7e8:	02010113          	addi	sp,sp,32
     7ec:	00008067          	ret

000007f0 <pqcrystals_dilithium2_ref_polyveck_sub>:
* Arguments:   - polyveck *w: pointer to output vector
*              - const polyveck *u: pointer to first input vector
*              - const polyveck *v: pointer to second input vector to be
*                                   subtracted from first input vector
**************************************************/
void polyveck_sub(polyveck *w, const polyveck *u, const polyveck *v) {
     7f0:	fe010113          	addi	sp,sp,-32
     7f4:	00112e23          	sw	ra,28(sp)
     7f8:	00812c23          	sw	s0,24(sp)
     7fc:	00912a23          	sw	s1,20(sp)
     800:	01212823          	sw	s2,16(sp)
     804:	01312623          	sw	s3,12(sp)
     808:	01412423          	sw	s4,8(sp)
     80c:	00050993          	mv	s3,a0
     810:	00058913          	mv	s2,a1
     814:	00060493          	mv	s1,a2
     818:	00000413          	li	s0,0
  unsigned int i;

  for(i = 0; i < K; ++i)
     81c:	00001a37          	lui	s4,0x1
    poly_sub(&w->vec[i], &u->vec[i], &v->vec[i]);
     820:	00848633          	add	a2,s1,s0
     824:	008905b3          	add	a1,s2,s0
     828:	00898533          	add	a0,s3,s0
     82c:	3d0000ef          	jal	bfc <pqcrystals_dilithium2_ref_poly_sub>
  for(i = 0; i < K; ++i)
     830:	40040413          	addi	s0,s0,1024
     834:	ff4416e3          	bne	s0,s4,820 <pqcrystals_dilithium2_ref_polyveck_sub+0x30>
}
     838:	01c12083          	lw	ra,28(sp)
     83c:	01812403          	lw	s0,24(sp)
     840:	01412483          	lw	s1,20(sp)
     844:	01012903          	lw	s2,16(sp)
     848:	00c12983          	lw	s3,12(sp)
     84c:	00812a03          	lw	s4,8(sp)
     850:	02010113          	addi	sp,sp,32
     854:	00008067          	ret

00000858 <pqcrystals_dilithium2_ref_polyveck_ntt>:
* Description: Forward NTT of all polynomials in vector of length K. Output
*              coefficients can be up to 16*Q larger than input coefficients.
*
* Arguments:   - polyveck *v: pointer to input/output vector
**************************************************/
void polyveck_ntt(polyveck *v) {
     858:	ff010113          	addi	sp,sp,-16
     85c:	00112623          	sw	ra,12(sp)
     860:	00812423          	sw	s0,8(sp)
     864:	00912223          	sw	s1,4(sp)
     868:	00050413          	mv	s0,a0
  unsigned int i;

  for(i = 0; i < K; ++i)
     86c:	000014b7          	lui	s1,0x1
     870:	009504b3          	add	s1,a0,s1
    poly_ntt(&v->vec[i]);
     874:	00040513          	mv	a0,s0
     878:	3b4000ef          	jal	c2c <pqcrystals_dilithium2_ref_poly_ntt>
  for(i = 0; i < K; ++i)
     87c:	40040413          	addi	s0,s0,1024
     880:	fe941ae3          	bne	s0,s1,874 <pqcrystals_dilithium2_ref_polyveck_ntt+0x1c>
}
     884:	00c12083          	lw	ra,12(sp)
     888:	00812403          	lw	s0,8(sp)
     88c:	00412483          	lw	s1,4(sp)
     890:	01010113          	addi	sp,sp,16
     894:	00008067          	ret

00000898 <pqcrystals_dilithium2_ref_polyveck_invntt_tomont>:
*              in vector of length K. Input coefficients need to be less
*              than 2*Q.
*
* Arguments:   - polyveck *v: pointer to input/output vector
**************************************************/
void polyveck_invntt_tomont(polyveck *v) {
     898:	ff010113          	addi	sp,sp,-16
     89c:	00112623          	sw	ra,12(sp)
     8a0:	00812423          	sw	s0,8(sp)
     8a4:	00912223          	sw	s1,4(sp)
     8a8:	00050413          	mv	s0,a0
  unsigned int i;

  for(i = 0; i < K; ++i)
     8ac:	000014b7          	lui	s1,0x1
     8b0:	009504b3          	add	s1,a0,s1
    poly_invntt_tomont(&v->vec[i]);
     8b4:	00040513          	mv	a0,s0
     8b8:	38c000ef          	jal	c44 <pqcrystals_dilithium2_ref_poly_invntt_tomont>
  for(i = 0; i < K; ++i)
     8bc:	40040413          	addi	s0,s0,1024
     8c0:	fe941ae3          	bne	s0,s1,8b4 <pqcrystals_dilithium2_ref_polyveck_invntt_tomont+0x1c>
}
     8c4:	00c12083          	lw	ra,12(sp)
     8c8:	00812403          	lw	s0,8(sp)
     8cc:	00412483          	lw	s1,4(sp)
     8d0:	01010113          	addi	sp,sp,16
     8d4:	00008067          	ret

000008d8 <pqcrystals_dilithium2_ref_polyveck_pointwise_poly_montgomery>:

void polyveck_pointwise_poly_montgomery(polyveck *r, const poly *a, const polyveck *v) {
     8d8:	fe010113          	addi	sp,sp,-32
     8dc:	00112e23          	sw	ra,28(sp)
     8e0:	00812c23          	sw	s0,24(sp)
     8e4:	00912a23          	sw	s1,20(sp)
     8e8:	01212823          	sw	s2,16(sp)
     8ec:	01312623          	sw	s3,12(sp)
     8f0:	01412423          	sw	s4,8(sp)
     8f4:	00050993          	mv	s3,a0
     8f8:	00058913          	mv	s2,a1
     8fc:	00060493          	mv	s1,a2
     900:	00000413          	li	s0,0
  unsigned int i;

  for(i = 0; i < K; ++i)
     904:	00001a37          	lui	s4,0x1
    poly_pointwise_montgomery(&r->vec[i], a, &v->vec[i]);
     908:	00848633          	add	a2,s1,s0
     90c:	00090593          	mv	a1,s2
     910:	00898533          	add	a0,s3,s0
     914:	348000ef          	jal	c5c <pqcrystals_dilithium2_ref_poly_pointwise_montgomery>
  for(i = 0; i < K; ++i)
     918:	40040413          	addi	s0,s0,1024
     91c:	ff4416e3          	bne	s0,s4,908 <pqcrystals_dilithium2_ref_polyveck_pointwise_poly_montgomery+0x30>
}
     920:	01c12083          	lw	ra,28(sp)
     924:	01812403          	lw	s0,24(sp)
     928:	01412483          	lw	s1,20(sp)
     92c:	01012903          	lw	s2,16(sp)
     930:	00c12983          	lw	s3,12(sp)
     934:	00812a03          	lw	s4,8(sp)
     938:	02010113          	addi	sp,sp,32
     93c:	00008067          	ret

00000940 <pqcrystals_dilithium2_ref_polyveck_chknorm>:
*              - int32_t B: norm bound
*
* Returns 0 if norm of all polynomials are strictly smaller than B <= (Q-1)/8
* and 1 otherwise.
**************************************************/
int polyveck_chknorm(const polyveck *v, int32_t bound) {
     940:	ff010113          	addi	sp,sp,-16
     944:	00112623          	sw	ra,12(sp)
     948:	00812423          	sw	s0,8(sp)
     94c:	00912223          	sw	s1,4(sp)
     950:	01212023          	sw	s2,0(sp)
     954:	00058913          	mv	s2,a1
  unsigned int i;

  for(i = 0; i < K; ++i)
     958:	00050413          	mv	s0,a0
     95c:	000017b7          	lui	a5,0x1
     960:	00f504b3          	add	s1,a0,a5
    if(poly_chknorm(&v->vec[i], bound))
     964:	00090593          	mv	a1,s2
     968:	00040513          	mv	a0,s0
     96c:	47c000ef          	jal	de8 <pqcrystals_dilithium2_ref_poly_chknorm>
     970:	02051263          	bnez	a0,994 <pqcrystals_dilithium2_ref_polyveck_chknorm+0x54>
  for(i = 0; i < K; ++i)
     974:	40040413          	addi	s0,s0,1024
     978:	fe9416e3          	bne	s0,s1,964 <pqcrystals_dilithium2_ref_polyveck_chknorm+0x24>
      return 1;

  return 0;
}
     97c:	00c12083          	lw	ra,12(sp)
     980:	00812403          	lw	s0,8(sp)
     984:	00412483          	lw	s1,4(sp)
     988:	00012903          	lw	s2,0(sp)
     98c:	01010113          	addi	sp,sp,16
     990:	00008067          	ret
      return 1;
     994:	00100513          	li	a0,1
     998:	fe5ff06f          	j	97c <pqcrystals_dilithium2_ref_polyveck_chknorm+0x3c>

0000099c <pqcrystals_dilithium2_ref_polyveck_decompose>:
*                              coefficients a1
*              - polyveck *v0: pointer to output vector of polynomials with
*                              coefficients a0
*              - const polyveck *v: pointer to input vector
**************************************************/
void polyveck_decompose(polyveck *v1, polyveck *v0, const polyveck *v) {
     99c:	fe010113          	addi	sp,sp,-32
     9a0:	00112e23          	sw	ra,28(sp)
     9a4:	00812c23          	sw	s0,24(sp)
     9a8:	00912a23          	sw	s1,20(sp)
     9ac:	01212823          	sw	s2,16(sp)
     9b0:	01312623          	sw	s3,12(sp)
     9b4:	01412423          	sw	s4,8(sp)
     9b8:	00050993          	mv	s3,a0
     9bc:	00058913          	mv	s2,a1
     9c0:	00060493          	mv	s1,a2
     9c4:	00000413          	li	s0,0
  unsigned int i;

  for(i = 0; i < K; ++i)
     9c8:	00001a37          	lui	s4,0x1
    poly_decompose(&v1->vec[i], &v0->vec[i], &v->vec[i]);
     9cc:	00848633          	add	a2,s1,s0
     9d0:	008905b3          	add	a1,s2,s0
     9d4:	00898533          	add	a0,s3,s0
     9d8:	318000ef          	jal	cf0 <pqcrystals_dilithium2_ref_poly_decompose>
  for(i = 0; i < K; ++i)
     9dc:	40040413          	addi	s0,s0,1024
     9e0:	ff4416e3          	bne	s0,s4,9cc <pqcrystals_dilithium2_ref_polyveck_decompose+0x30>
}
     9e4:	01c12083          	lw	ra,28(sp)
     9e8:	01812403          	lw	s0,24(sp)
     9ec:	01412483          	lw	s1,20(sp)
     9f0:	01012903          	lw	s2,16(sp)
     9f4:	00c12983          	lw	s3,12(sp)
     9f8:	00812a03          	lw	s4,8(sp)
     9fc:	02010113          	addi	sp,sp,32
     a00:	00008067          	ret

00000a04 <pqcrystals_dilithium2_ref_polyveck_make_hint>:
* Returns number of 1 bits.
**************************************************/
unsigned int polyveck_make_hint(polyveck *h,
                                const polyveck *v0,
                                const polyveck *v1)
{
     a04:	fe010113          	addi	sp,sp,-32
     a08:	00112e23          	sw	ra,28(sp)
     a0c:	00812c23          	sw	s0,24(sp)
     a10:	00912a23          	sw	s1,20(sp)
     a14:	01212823          	sw	s2,16(sp)
     a18:	01312623          	sw	s3,12(sp)
     a1c:	01412423          	sw	s4,8(sp)
     a20:	01512223          	sw	s5,4(sp)
     a24:	00050a13          	mv	s4,a0
     a28:	00058993          	mv	s3,a1
     a2c:	00060913          	mv	s2,a2
     a30:	00000413          	li	s0,0
  unsigned int i, s = 0;
     a34:	00000493          	li	s1,0

  for(i = 0; i < K; ++i)
     a38:	00001ab7          	lui	s5,0x1
    s += poly_make_hint(&h->vec[i], &v0->vec[i], &v1->vec[i]);
     a3c:	00890633          	add	a2,s2,s0
     a40:	008985b3          	add	a1,s3,s0
     a44:	008a0533          	add	a0,s4,s0
     a48:	318000ef          	jal	d60 <pqcrystals_dilithium2_ref_poly_make_hint>
     a4c:	00a484b3          	add	s1,s1,a0
  for(i = 0; i < K; ++i)
     a50:	40040413          	addi	s0,s0,1024
     a54:	ff5414e3          	bne	s0,s5,a3c <pqcrystals_dilithium2_ref_polyveck_make_hint+0x38>

  return s;
}
     a58:	00048513          	mv	a0,s1
     a5c:	01c12083          	lw	ra,28(sp)
     a60:	01812403          	lw	s0,24(sp)
     a64:	01412483          	lw	s1,20(sp)
     a68:	01012903          	lw	s2,16(sp)
     a6c:	00c12983          	lw	s3,12(sp)
     a70:	00812a03          	lw	s4,8(sp)
     a74:	00412a83          	lw	s5,4(sp)
     a78:	02010113          	addi	sp,sp,32
     a7c:	00008067          	ret

00000a80 <pqcrystals_dilithium2_ref_polyveck_pack_w1>:

  for(i = 0; i < K; ++i)
    poly_use_hint(&w->vec[i], &u->vec[i], &h->vec[i]);
}

void polyveck_pack_w1(uint8_t r[K*POLYW1_PACKEDBYTES], const polyveck *w1) {
     a80:	ff010113          	addi	sp,sp,-16
     a84:	00112623          	sw	ra,12(sp)
     a88:	00812423          	sw	s0,8(sp)
     a8c:	00912223          	sw	s1,4(sp)
     a90:	01212023          	sw	s2,0(sp)
  unsigned int i;

  for(i = 0; i < K; ++i)
     a94:	00050413          	mv	s0,a0
     a98:	00058493          	mv	s1,a1
     a9c:	30050913          	addi	s2,a0,768
    polyw1_pack(&r[i*POLYW1_PACKEDBYTES], &w1->vec[i]);
     aa0:	00048593          	mv	a1,s1
     aa4:	00040513          	mv	a0,s0
     aa8:	2d9000ef          	jal	1580 <pqcrystals_dilithium2_ref_polyw1_pack>
  for(i = 0; i < K; ++i)
     aac:	0c040413          	addi	s0,s0,192
     ab0:	40048493          	addi	s1,s1,1024 # 1400 <pqcrystals_dilithium2_ref_polyz_pack+0x6c>
     ab4:	ff2416e3          	bne	s0,s2,aa0 <pqcrystals_dilithium2_ref_polyveck_pack_w1+0x20>
}
     ab8:	00c12083          	lw	ra,12(sp)
     abc:	00812403          	lw	s0,8(sp)
     ac0:	00412483          	lw	s1,4(sp)
     ac4:	00012903          	lw	s2,0(sp)
     ac8:	01010113          	addi	sp,sp,16
     acc:	00008067          	ret

00000ad0 <rej_uniform>:
**************************************************/
static unsigned int rej_uniform(int32_t *a,
                                unsigned int len,
                                const uint8_t *buf,
                                unsigned int buflen)
{
     ad0:	00050e93          	mv	t4,a0
  unsigned int ctr, pos;
  uint32_t t;
  DBENCH_START();

  ctr = pos = 0;
  while(ctr < len && pos + 3 <= buflen) {
     ad4:	06058863          	beqz	a1,b44 <rej_uniform+0x74>
     ad8:	00060713          	mv	a4,a2
  ctr = pos = 0;
     adc:	00000513          	li	a0,0
  while(ctr < len && pos + 3 <= buflen) {
     ae0:	00300893          	li	a7,3
     ae4:	40c888b3          	sub	a7,a7,a2
    t  = buf[pos++];
    t |= (uint32_t)buf[pos++] << 8;
    t |= (uint32_t)buf[pos++] << 16;
    t &= 0x7FFFFF;
     ae8:	00800337          	lui	t1,0x800
     aec:	fff30313          	addi	t1,t1,-1 # 7fffff <_stack_start+0x7f0003>

    if(t < Q)
     af0:	007fee37          	lui	t3,0x7fe
     af4:	00c0006f          	j	b00 <rej_uniform+0x30>
  while(ctr < len && pos + 3 <= buflen) {
     af8:	00370713          	addi	a4,a4,3
     afc:	04b57663          	bgeu	a0,a1,b48 <rej_uniform+0x78>
     b00:	00e887b3          	add	a5,a7,a4
     b04:	02f6ee63          	bltu	a3,a5,b40 <rej_uniform+0x70>
    t  = buf[pos++];
     b08:	00074803          	lbu	a6,0(a4)
    t |= (uint32_t)buf[pos++] << 8;
     b0c:	00174783          	lbu	a5,1(a4)
     b10:	00879793          	slli	a5,a5,0x8
    t |= (uint32_t)buf[pos++] << 16;
     b14:	00274603          	lbu	a2,2(a4)
     b18:	01061613          	slli	a2,a2,0x10
     b1c:	00c7e7b3          	or	a5,a5,a2
     b20:	0107e7b3          	or	a5,a5,a6
    t &= 0x7FFFFF;
     b24:	0067f7b3          	and	a5,a5,t1
    if(t < Q)
     b28:	fcfe68e3          	bltu	t3,a5,af8 <rej_uniform+0x28>
      a[ctr++] = t;
     b2c:	00251613          	slli	a2,a0,0x2
     b30:	00ce8633          	add	a2,t4,a2
     b34:	00f62023          	sw	a5,0(a2)
     b38:	00150513          	addi	a0,a0,1
     b3c:	fbdff06f          	j	af8 <rej_uniform+0x28>
     b40:	00008067          	ret
  ctr = pos = 0;
     b44:	00058513          	mv	a0,a1
  }

  DBENCH_STOP(*tsample);
  return ctr;
}
     b48:	00008067          	ret

00000b4c <pqcrystals_dilithium2_ref_poly_reduce>:
void poly_reduce(poly *a) {
     b4c:	ff010113          	addi	sp,sp,-16
     b50:	00112623          	sw	ra,12(sp)
     b54:	00812423          	sw	s0,8(sp)
     b58:	00912223          	sw	s1,4(sp)
     b5c:	00050413          	mv	s0,a0
  for(i = 0; i < N; ++i)
     b60:	40050493          	addi	s1,a0,1024
    a->coeffs[i] = reduce32(a->coeffs[i]);
     b64:	00042503          	lw	a0,0(s0)
     b68:	595000ef          	jal	18fc <pqcrystals_dilithium2_ref_reduce32>
     b6c:	00a42023          	sw	a0,0(s0)
  for(i = 0; i < N; ++i)
     b70:	00440413          	addi	s0,s0,4
     b74:	fe9418e3          	bne	s0,s1,b64 <pqcrystals_dilithium2_ref_poly_reduce+0x18>
}
     b78:	00c12083          	lw	ra,12(sp)
     b7c:	00812403          	lw	s0,8(sp)
     b80:	00412483          	lw	s1,4(sp)
     b84:	01010113          	addi	sp,sp,16
     b88:	00008067          	ret

00000b8c <pqcrystals_dilithium2_ref_poly_caddq>:
void poly_caddq(poly *a) {
     b8c:	ff010113          	addi	sp,sp,-16
     b90:	00112623          	sw	ra,12(sp)
     b94:	00812423          	sw	s0,8(sp)
     b98:	00912223          	sw	s1,4(sp)
     b9c:	00050413          	mv	s0,a0
  for(i = 0; i < N; ++i)
     ba0:	40050493          	addi	s1,a0,1024
    a->coeffs[i] = caddq(a->coeffs[i]);
     ba4:	00042503          	lw	a0,0(s0)
     ba8:	575000ef          	jal	191c <pqcrystals_dilithium2_ref_caddq>
     bac:	00a42023          	sw	a0,0(s0)
  for(i = 0; i < N; ++i)
     bb0:	00440413          	addi	s0,s0,4
     bb4:	fe9418e3          	bne	s0,s1,ba4 <pqcrystals_dilithium2_ref_poly_caddq+0x18>
}
     bb8:	00c12083          	lw	ra,12(sp)
     bbc:	00812403          	lw	s0,8(sp)
     bc0:	00412483          	lw	s1,4(sp)
     bc4:	01010113          	addi	sp,sp,16
     bc8:	00008067          	ret

00000bcc <pqcrystals_dilithium2_ref_poly_add>:
void poly_add(poly *c, const poly *a, const poly *b)  {
     bcc:	00000793          	li	a5,0
  for(i = 0; i < N; ++i)
     bd0:	40000893          	li	a7,1024
    c->coeffs[i] = a->coeffs[i] + b->coeffs[i];
     bd4:	00f506b3          	add	a3,a0,a5
     bd8:	00f58733          	add	a4,a1,a5
     bdc:	00f60833          	add	a6,a2,a5
     be0:	00072703          	lw	a4,0(a4)
     be4:	00082803          	lw	a6,0(a6)
     be8:	01070733          	add	a4,a4,a6
     bec:	00e6a023          	sw	a4,0(a3)
  for(i = 0; i < N; ++i)
     bf0:	00478793          	addi	a5,a5,4 # 1004 <pqcrystals_dilithium2_ref_poly_challenge+0x90>
     bf4:	ff1790e3          	bne	a5,a7,bd4 <pqcrystals_dilithium2_ref_poly_add+0x8>
}
     bf8:	00008067          	ret

00000bfc <pqcrystals_dilithium2_ref_poly_sub>:
void poly_sub(poly *c, const poly *a, const poly *b) {
     bfc:	00000793          	li	a5,0
  for(i = 0; i < N; ++i)
     c00:	40000893          	li	a7,1024
    c->coeffs[i] = a->coeffs[i] - b->coeffs[i];
     c04:	00f506b3          	add	a3,a0,a5
     c08:	00f58733          	add	a4,a1,a5
     c0c:	00f60833          	add	a6,a2,a5
     c10:	00072703          	lw	a4,0(a4)
     c14:	00082803          	lw	a6,0(a6)
     c18:	41070733          	sub	a4,a4,a6
     c1c:	00e6a023          	sw	a4,0(a3)
  for(i = 0; i < N; ++i)
     c20:	00478793          	addi	a5,a5,4
     c24:	ff1790e3          	bne	a5,a7,c04 <pqcrystals_dilithium2_ref_poly_sub+0x8>
}
     c28:	00008067          	ret

00000c2c <pqcrystals_dilithium2_ref_poly_ntt>:
void poly_ntt(poly *a) {
     c2c:	ff010113          	addi	sp,sp,-16
     c30:	00112623          	sw	ra,12(sp)
  ntt(a->coeffs);
     c34:	1bd000ef          	jal	15f0 <pqcrystals_dilithium2_ref_ntt>
}
     c38:	00c12083          	lw	ra,12(sp)
     c3c:	01010113          	addi	sp,sp,16
     c40:	00008067          	ret

00000c44 <pqcrystals_dilithium2_ref_poly_invntt_tomont>:
void poly_invntt_tomont(poly *a) {
     c44:	ff010113          	addi	sp,sp,-16
     c48:	00112623          	sw	ra,12(sp)
  invntt_tomont(a->coeffs);
     c4c:	301000ef          	jal	174c <pqcrystals_dilithium2_ref_invntt_tomont>
}
     c50:	00c12083          	lw	ra,12(sp)
     c54:	01010113          	addi	sp,sp,16
     c58:	00008067          	ret

00000c5c <pqcrystals_dilithium2_ref_poly_pointwise_montgomery>:
void poly_pointwise_montgomery(poly *c, const poly *a, const poly *b) {
     c5c:	fe010113          	addi	sp,sp,-32
     c60:	00112e23          	sw	ra,28(sp)
     c64:	00812c23          	sw	s0,24(sp)
     c68:	00912a23          	sw	s1,20(sp)
     c6c:	01212823          	sw	s2,16(sp)
     c70:	01312623          	sw	s3,12(sp)
     c74:	01412423          	sw	s4,8(sp)
     c78:	00050993          	mv	s3,a0
     c7c:	00058913          	mv	s2,a1
     c80:	00060493          	mv	s1,a2
     c84:	00000413          	li	s0,0
  for(i = 0; i < N; ++i)
     c88:	40000a13          	li	s4,1024
    c->coeffs[i] = montgomery_reduce((int64_t)a->coeffs[i] * b->coeffs[i]);
     c8c:	008907b3          	add	a5,s2,s0
     c90:	0007a503          	lw	a0,0(a5)
     c94:	41f55793          	srai	a5,a0,0x1f
     c98:	00848733          	add	a4,s1,s0
     c9c:	00072703          	lw	a4,0(a4)
     ca0:	41f75693          	srai	a3,a4,0x1f
     ca4:	02e787b3          	mul	a5,a5,a4
     ca8:	02a686b3          	mul	a3,a3,a0
     cac:	00d787b3          	add	a5,a5,a3
     cb0:	02e535b3          	mulhu	a1,a0,a4
     cb4:	02e50533          	mul	a0,a0,a4
     cb8:	00b785b3          	add	a1,a5,a1
     cbc:	409000ef          	jal	18c4 <pqcrystals_dilithium2_ref_montgomery_reduce>
     cc0:	008987b3          	add	a5,s3,s0
     cc4:	00a7a023          	sw	a0,0(a5)
  for(i = 0; i < N; ++i)
     cc8:	00440413          	addi	s0,s0,4
     ccc:	fd4410e3          	bne	s0,s4,c8c <pqcrystals_dilithium2_ref_poly_pointwise_montgomery+0x30>
}
     cd0:	01c12083          	lw	ra,28(sp)
     cd4:	01812403          	lw	s0,24(sp)
     cd8:	01412483          	lw	s1,20(sp)
     cdc:	01012903          	lw	s2,16(sp)
     ce0:	00c12983          	lw	s3,12(sp)
     ce4:	00812a03          	lw	s4,8(sp)
     ce8:	02010113          	addi	sp,sp,32
     cec:	00008067          	ret

00000cf0 <pqcrystals_dilithium2_ref_poly_decompose>:
void poly_decompose(poly *a1, poly *a0, const poly *a) {
     cf0:	fe010113          	addi	sp,sp,-32
     cf4:	00112e23          	sw	ra,28(sp)
     cf8:	00812c23          	sw	s0,24(sp)
     cfc:	00912a23          	sw	s1,20(sp)
     d00:	01212823          	sw	s2,16(sp)
     d04:	01312623          	sw	s3,12(sp)
     d08:	01412423          	sw	s4,8(sp)
     d0c:	00050993          	mv	s3,a0
     d10:	00058913          	mv	s2,a1
     d14:	00060493          	mv	s1,a2
     d18:	00000413          	li	s0,0
  for(i = 0; i < N; ++i)
     d1c:	40000a13          	li	s4,1024
    a1->coeffs[i] = decompose(&a0->coeffs[i], a->coeffs[i]);
     d20:	008487b3          	add	a5,s1,s0
     d24:	0007a583          	lw	a1,0(a5)
     d28:	00890533          	add	a0,s2,s0
     d2c:	7f1020ef          	jal	3d1c <pqcrystals_dilithium2_ref_decompose>
     d30:	008987b3          	add	a5,s3,s0
     d34:	00a7a023          	sw	a0,0(a5)
  for(i = 0; i < N; ++i)
     d38:	00440413          	addi	s0,s0,4
     d3c:	ff4412e3          	bne	s0,s4,d20 <pqcrystals_dilithium2_ref_poly_decompose+0x30>
}
     d40:	01c12083          	lw	ra,28(sp)
     d44:	01812403          	lw	s0,24(sp)
     d48:	01412483          	lw	s1,20(sp)
     d4c:	01012903          	lw	s2,16(sp)
     d50:	00c12983          	lw	s3,12(sp)
     d54:	00812a03          	lw	s4,8(sp)
     d58:	02010113          	addi	sp,sp,32
     d5c:	00008067          	ret

00000d60 <pqcrystals_dilithium2_ref_poly_make_hint>:
unsigned int poly_make_hint(poly *h, const poly *a0, const poly *a1) {
     d60:	fe010113          	addi	sp,sp,-32
     d64:	00112e23          	sw	ra,28(sp)
     d68:	00812c23          	sw	s0,24(sp)
     d6c:	00912a23          	sw	s1,20(sp)
     d70:	01212823          	sw	s2,16(sp)
     d74:	01312623          	sw	s3,12(sp)
     d78:	01412423          	sw	s4,8(sp)
     d7c:	01512223          	sw	s5,4(sp)
     d80:	00050a13          	mv	s4,a0
     d84:	00058993          	mv	s3,a1
     d88:	00060913          	mv	s2,a2
     d8c:	00000413          	li	s0,0
  unsigned int i, s = 0;
     d90:	00000493          	li	s1,0
  for(i = 0; i < N; ++i) {
     d94:	40000a93          	li	s5,1024
    h->coeffs[i] = make_hint(a0->coeffs[i], a1->coeffs[i]);
     d98:	00890733          	add	a4,s2,s0
     d9c:	008987b3          	add	a5,s3,s0
     da0:	00072583          	lw	a1,0(a4)
     da4:	0007a503          	lw	a0,0(a5)
     da8:	7e1020ef          	jal	3d88 <pqcrystals_dilithium2_ref_make_hint>
     dac:	008a07b3          	add	a5,s4,s0
     db0:	00a7a023          	sw	a0,0(a5)
    s += h->coeffs[i];
     db4:	00a484b3          	add	s1,s1,a0
  for(i = 0; i < N; ++i) {
     db8:	00440413          	addi	s0,s0,4
     dbc:	fd541ee3          	bne	s0,s5,d98 <pqcrystals_dilithium2_ref_poly_make_hint+0x38>
}
     dc0:	00048513          	mv	a0,s1
     dc4:	01c12083          	lw	ra,28(sp)
     dc8:	01812403          	lw	s0,24(sp)
     dcc:	01412483          	lw	s1,20(sp)
     dd0:	01012903          	lw	s2,16(sp)
     dd4:	00c12983          	lw	s3,12(sp)
     dd8:	00812a03          	lw	s4,8(sp)
     ddc:	00412a83          	lw	s5,4(sp)
     de0:	02010113          	addi	sp,sp,32
     de4:	00008067          	ret

00000de8 <pqcrystals_dilithium2_ref_poly_chknorm>:
  if(B > (Q-1)/8)
     de8:	001007b7          	lui	a5,0x100
     dec:	c0078793          	addi	a5,a5,-1024 # ffc00 <_stack_start+0xefc04>
     df0:	02b7ca63          	blt	a5,a1,e24 <pqcrystals_dilithium2_ref_poly_chknorm+0x3c>
     df4:	00050693          	mv	a3,a0
     df8:	40050513          	addi	a0,a0,1024
    t = a->coeffs[i] >> 31;
     dfc:	0006a783          	lw	a5,0(a3)
    t = a->coeffs[i] - (t & 2*a->coeffs[i]);
     e00:	00179713          	slli	a4,a5,0x1
    t = a->coeffs[i] >> 31;
     e04:	41f7d613          	srai	a2,a5,0x1f
    t = a->coeffs[i] - (t & 2*a->coeffs[i]);
     e08:	00c77733          	and	a4,a4,a2
     e0c:	40e787b3          	sub	a5,a5,a4
    if(t >= B) {
     e10:	00b7de63          	bge	a5,a1,e2c <pqcrystals_dilithium2_ref_poly_chknorm+0x44>
  for(i = 0; i < N; ++i) {
     e14:	00468693          	addi	a3,a3,4
     e18:	fea692e3          	bne	a3,a0,dfc <pqcrystals_dilithium2_ref_poly_chknorm+0x14>
  return 0;
     e1c:	00000513          	li	a0,0
     e20:	00008067          	ret
    return 1;
     e24:	00100513          	li	a0,1
     e28:	00008067          	ret
      return 1;
     e2c:	00100513          	li	a0,1
}
     e30:	00008067          	ret

00000e34 <pqcrystals_dilithium2_ref_poly_uniform>:
**************************************************/
#define POLY_UNIFORM_NBLOCKS ((768 + STREAM128_BLOCKBYTES - 1)/STREAM128_BLOCKBYTES)
void poly_uniform(poly *a,
                  const uint8_t seed[SEEDBYTES],
                  uint16_t nonce)
{
     e34:	bb010113          	addi	sp,sp,-1104
     e38:	44112623          	sw	ra,1100(sp)
     e3c:	44812423          	sw	s0,1096(sp)
     e40:	44912223          	sw	s1,1092(sp)
     e44:	43512a23          	sw	s5,1076(sp)
     e48:	00050a93          	mv	s5,a0
  unsigned int i, ctr, off;
  unsigned int buflen = POLY_UNIFORM_NBLOCKS*STREAM128_BLOCKBYTES;
  uint8_t buf[POLY_UNIFORM_NBLOCKS*STREAM128_BLOCKBYTES + 2];
  stream128_state state;

  stream128_init(&state, seed, nonce);
     e4c:	00010513          	mv	a0,sp
     e50:	779020ef          	jal	3dc8 <pqcrystals_dilithium2_ref_dilithium_shake128_stream_init>
  stream128_squeezeblocks(buf, POLY_UNIFORM_NBLOCKS, &state);
     e54:	0d410413          	addi	s0,sp,212
     e58:	00010613          	mv	a2,sp
     e5c:	00500593          	li	a1,5
     e60:	00040513          	mv	a0,s0
     e64:	6b8020ef          	jal	351c <pqcrystals_fips202_ref_shake128_squeezeblocks>

  ctr = rej_uniform(a->coeffs, N, buf, buflen);
     e68:	34800693          	li	a3,840
     e6c:	00040613          	mv	a2,s0
     e70:	10000593          	li	a1,256
     e74:	000a8513          	mv	a0,s5
     e78:	c59ff0ef          	jal	ad0 <rej_uniform>

  while(ctr < N) {
     e7c:	0ff00793          	li	a5,255
     e80:	0ca7ee63          	bltu	a5,a0,f5c <pqcrystals_dilithium2_ref_poly_uniform+0x128>
     e84:	45212023          	sw	s2,1088(sp)
     e88:	43312e23          	sw	s3,1084(sp)
     e8c:	43412c23          	sw	s4,1080(sp)
     e90:	43612823          	sw	s6,1072(sp)
     e94:	43712623          	sw	s7,1068(sp)
     e98:	43812423          	sw	s8,1064(sp)
     e9c:	43912223          	sw	s9,1060(sp)
     ea0:	00050913          	mv	s2,a0
  unsigned int buflen = POLY_UNIFORM_NBLOCKS*STREAM128_BLOCKBYTES;
     ea4:	34800413          	li	s0,840
    off = buflen % 3;
     ea8:	aaaabb37          	lui	s6,0xaaaab
     eac:	aabb0b13          	addi	s6,s6,-1365 # aaaaaaab <_stack_start+0xaaa9aaaf>
    for(i = 0; i < off; ++i)
     eb0:	00100a13          	li	s4,1
      buf[i] = buf[buflen - off + i];

    stream128_squeezeblocks(buf + off, 1, &state);
     eb4:	00010c93          	mv	s9,sp
     eb8:	0d410993          	addi	s3,sp,212
    buflen = STREAM128_BLOCKBYTES + off;
    ctr += rej_uniform(a->coeffs + ctr, N - ctr, buf, buflen);
     ebc:	10000c13          	li	s8,256
  while(ctr < N) {
     ec0:	00078b93          	mv	s7,a5
     ec4:	0380006f          	j	efc <pqcrystals_dilithium2_ref_poly_uniform+0xc8>
    stream128_squeezeblocks(buf + off, 1, &state);
     ec8:	000c8613          	mv	a2,s9
     ecc:	000a0593          	mv	a1,s4
     ed0:	00998533          	add	a0,s3,s1
     ed4:	648020ef          	jal	351c <pqcrystals_fips202_ref_shake128_squeezeblocks>
    buflen = STREAM128_BLOCKBYTES + off;
     ed8:	0a848413          	addi	s0,s1,168
    ctr += rej_uniform(a->coeffs + ctr, N - ctr, buf, buflen);
     edc:	00291513          	slli	a0,s2,0x2
     ee0:	00040693          	mv	a3,s0
     ee4:	00098613          	mv	a2,s3
     ee8:	412c05b3          	sub	a1,s8,s2
     eec:	00aa8533          	add	a0,s5,a0
     ef0:	be1ff0ef          	jal	ad0 <rej_uniform>
     ef4:	00a90933          	add	s2,s2,a0
  while(ctr < N) {
     ef8:	052be463          	bltu	s7,s2,f40 <pqcrystals_dilithium2_ref_poly_uniform+0x10c>
    off = buflen % 3;
     efc:	036437b3          	mulhu	a5,s0,s6
     f00:	0017d493          	srli	s1,a5,0x1
     f04:	ffe7f793          	andi	a5,a5,-2
     f08:	009787b3          	add	a5,a5,s1
     f0c:	40f404b3          	sub	s1,s0,a5
    for(i = 0; i < off; ++i)
     f10:	faf40ce3          	beq	s0,a5,ec8 <pqcrystals_dilithium2_ref_poly_uniform+0x94>
      buf[i] = buf[buflen - off + i];
     f14:	40940433          	sub	s0,s0,s1
     f18:	42040793          	addi	a5,s0,1056
     f1c:	002787b3          	add	a5,a5,sp
     f20:	cb47c783          	lbu	a5,-844(a5)
     f24:	0cf10a23          	sb	a5,212(sp)
    for(i = 0; i < off; ++i)
     f28:	fa9a70e3          	bgeu	s4,s1,ec8 <pqcrystals_dilithium2_ref_poly_uniform+0x94>
      buf[i] = buf[buflen - off + i];
     f2c:	42040793          	addi	a5,s0,1056
     f30:	00278433          	add	s0,a5,sp
     f34:	cb544783          	lbu	a5,-843(s0)
     f38:	0cf10aa3          	sb	a5,213(sp)
    for(i = 0; i < off; ++i)
     f3c:	f8dff06f          	j	ec8 <pqcrystals_dilithium2_ref_poly_uniform+0x94>
     f40:	44012903          	lw	s2,1088(sp)
     f44:	43c12983          	lw	s3,1084(sp)
     f48:	43812a03          	lw	s4,1080(sp)
     f4c:	43012b03          	lw	s6,1072(sp)
     f50:	42c12b83          	lw	s7,1068(sp)
     f54:	42812c03          	lw	s8,1064(sp)
     f58:	42412c83          	lw	s9,1060(sp)
  }
}
     f5c:	44c12083          	lw	ra,1100(sp)
     f60:	44812403          	lw	s0,1096(sp)
     f64:	44412483          	lw	s1,1092(sp)
     f68:	43412a83          	lw	s5,1076(sp)
     f6c:	45010113          	addi	sp,sp,1104
     f70:	00008067          	ret

00000f74 <pqcrystals_dilithium2_ref_poly_challenge>:
*              SHAKE256(seed).
*
* Arguments:   - poly *c: pointer to output polynomial
*              - const uint8_t mu[]: byte array containing seed of length SEEDBYTES
**************************************************/
void poly_challenge(poly *c, const uint8_t seed[SEEDBYTES]) {
     f74:	e7010113          	addi	sp,sp,-400
     f78:	18112623          	sw	ra,396(sp)
     f7c:	18812423          	sw	s0,392(sp)
     f80:	18912223          	sw	s1,388(sp)
     f84:	19212023          	sw	s2,384(sp)
     f88:	17312e23          	sw	s3,380(sp)
     f8c:	17412c23          	sw	s4,376(sp)
     f90:	17512a23          	sw	s5,372(sp)
     f94:	17612823          	sw	s6,368(sp)
     f98:	17712623          	sw	s7,364(sp)
     f9c:	17812423          	sw	s8,360(sp)
     fa0:	17912223          	sw	s9,356(sp)
     fa4:	00050c13          	mv	s8,a0
     fa8:	00058413          	mv	s0,a1
  unsigned int i, b, pos;
  uint64_t signs;
  uint8_t buf[SHAKE256_RATE];
  keccak_state state;

  shake256_init(&state);
     fac:	00810493          	addi	s1,sp,8
     fb0:	00048513          	mv	a0,s1
     fb4:	584020ef          	jal	3538 <pqcrystals_fips202_ref_shake256_init>
  shake256_absorb(&state, seed, SEEDBYTES);
     fb8:	02000613          	li	a2,32
     fbc:	00040593          	mv	a1,s0
     fc0:	00048513          	mv	a0,s1
     fc4:	58c020ef          	jal	3550 <pqcrystals_fips202_ref_shake256_absorb>
  shake256_finalize(&state);
     fc8:	00048513          	mv	a0,s1
     fcc:	5bc020ef          	jal	3588 <pqcrystals_fips202_ref_shake256_finalize>
  shake256_squeezeblocks(buf, 1, &state);
     fd0:	0d810413          	addi	s0,sp,216
     fd4:	00048613          	mv	a2,s1
     fd8:	00100593          	li	a1,1
     fdc:	00040513          	mv	a0,s0
     fe0:	5dc020ef          	jal	35bc <pqcrystals_fips202_ref_shake256_squeezeblocks>

  signs = 0;
  for(i = 0; i < 8; ++i)
     fe4:	00040613          	mv	a2,s0
  shake256_squeezeblocks(buf, 1, &state);
     fe8:	00000713          	li	a4,0
  signs = 0;
     fec:	00000913          	li	s2,0
     ff0:	00000a13          	li	s4,0
    signs |= (uint64_t)buf[i] << 8*i;
     ff4:	01f00813          	li	a6,31
  for(i = 0; i < 8; ++i)
     ff8:	04000593          	li	a1,64
     ffc:	0280006f          	j	1024 <pqcrystals_dilithium2_ref_poly_challenge+0xb0>
    signs |= (uint64_t)buf[i] << 8*i;
    1000:	0016d793          	srli	a5,a3,0x1
    1004:	40e80533          	sub	a0,a6,a4
    1008:	00a7d7b3          	srl	a5,a5,a0
    100c:	00e696b3          	sll	a3,a3,a4
    1010:	00d96933          	or	s2,s2,a3
    1014:	00fa6a33          	or	s4,s4,a5
  for(i = 0; i < 8; ++i)
    1018:	00160613          	addi	a2,a2,1
    101c:	00870713          	addi	a4,a4,8
    1020:	00b70e63          	beq	a4,a1,103c <pqcrystals_dilithium2_ref_poly_challenge+0xc8>
    signs |= (uint64_t)buf[i] << 8*i;
    1024:	00064683          	lbu	a3,0(a2)
    1028:	fe070793          	addi	a5,a4,-32
    102c:	fc07cae3          	bltz	a5,1000 <pqcrystals_dilithium2_ref_poly_challenge+0x8c>
    1030:	00f697b3          	sll	a5,a3,a5
    1034:	00000693          	li	a3,0
    1038:	fd9ff06f          	j	1010 <pqcrystals_dilithium2_ref_poly_challenge+0x9c>
  pos = 8;

  for(i = 0; i < N; ++i)
    103c:	400c0713          	addi	a4,s8,1024
  for(i = 0; i < 8; ++i)
    1040:	000c0793          	mv	a5,s8
    c->coeffs[i] = 0;
    1044:	0007a023          	sw	zero,0(a5)
  for(i = 0; i < N; ++i)
    1048:	00478793          	addi	a5,a5,4
    104c:	fee79ce3          	bne	a5,a4,1044 <pqcrystals_dilithium2_ref_poly_challenge+0xd0>
    1050:	364c0b93          	addi	s7,s8,868
  pos = 8;
    1054:	00800713          	li	a4,8
  for(i = N-TAU; i < N; ++i) {
    1058:	0d900413          	li	s0,217
    do {
      if(pos >= SHAKE256_RATE) {
    105c:	08700493          	li	s1,135
        shake256_squeezeblocks(buf, 1, &state);
    1060:	00e10b33          	add	s6,sp,a4
    1064:	0d810a93          	addi	s5,sp,216
    1068:	00100993          	li	s3,1
  for(i = N-TAU; i < N; ++i) {
    106c:	10000c93          	li	s9,256
    1070:	0180006f          	j	1088 <pqcrystals_dilithium2_ref_poly_challenge+0x114>
        pos = 0;
      }

      b = buf[pos++];
    1074:	00178713          	addi	a4,a5,1
    1078:	16078793          	addi	a5,a5,352
    107c:	002787b3          	add	a5,a5,sp
    1080:	f787c783          	lbu	a5,-136(a5)
    } while(b > i);
    1084:	02f47263          	bgeu	s0,a5,10a8 <pqcrystals_dilithium2_ref_poly_challenge+0x134>
      if(pos >= SHAKE256_RATE) {
    1088:	00070793          	mv	a5,a4
    108c:	fee4f4e3          	bgeu	s1,a4,1074 <pqcrystals_dilithium2_ref_poly_challenge+0x100>
        shake256_squeezeblocks(buf, 1, &state);
    1090:	000b0613          	mv	a2,s6
    1094:	00098593          	mv	a1,s3
    1098:	000a8513          	mv	a0,s5
    109c:	520020ef          	jal	35bc <pqcrystals_fips202_ref_shake256_squeezeblocks>
        pos = 0;
    10a0:	00000793          	li	a5,0
    10a4:	fd1ff06f          	j	1074 <pqcrystals_dilithium2_ref_poly_challenge+0x100>

    c->coeffs[i] = c->coeffs[b];
    10a8:	00279793          	slli	a5,a5,0x2
    10ac:	00fc07b3          	add	a5,s8,a5
    10b0:	0007a683          	lw	a3,0(a5)
    10b4:	00dba023          	sw	a3,0(s7) # fffff000 <_stack_start+0xfffef004>
    c->coeffs[b] = 1 - 2*(signs & 1);
    10b8:	00197693          	andi	a3,s2,1
    10bc:	00169693          	slli	a3,a3,0x1
    10c0:	40d986b3          	sub	a3,s3,a3
    10c4:	00d7a023          	sw	a3,0(a5)
    signs >>= 1;
    10c8:	01fa1793          	slli	a5,s4,0x1f
    10cc:	00195913          	srli	s2,s2,0x1
    10d0:	01278933          	add	s2,a5,s2
    10d4:	001a5a13          	srli	s4,s4,0x1
  for(i = N-TAU; i < N; ++i) {
    10d8:	00140413          	addi	s0,s0,1
    10dc:	004b8b93          	addi	s7,s7,4
    10e0:	fb9414e3          	bne	s0,s9,1088 <pqcrystals_dilithium2_ref_poly_challenge+0x114>
  }
}
    10e4:	18c12083          	lw	ra,396(sp)
    10e8:	18812403          	lw	s0,392(sp)
    10ec:	18412483          	lw	s1,388(sp)
    10f0:	18012903          	lw	s2,384(sp)
    10f4:	17c12983          	lw	s3,380(sp)
    10f8:	17812a03          	lw	s4,376(sp)
    10fc:	17412a83          	lw	s5,372(sp)
    1100:	17012b03          	lw	s6,368(sp)
    1104:	16c12b83          	lw	s7,364(sp)
    1108:	16812c03          	lw	s8,360(sp)
    110c:	16412c83          	lw	s9,356(sp)
    1110:	19010113          	addi	sp,sp,400
    1114:	00008067          	ret

00001118 <pqcrystals_dilithium2_ref_polyeta_unpack>:
void polyeta_unpack(poly *r, const uint8_t *a) {
  unsigned int i;
  DBENCH_START();

#if ETA == 2
  for(i = 0; i < N/8; ++i) {
    1118:	00050793          	mv	a5,a0
    111c:	40050e13          	addi	t3,a0,1024
    r->coeffs[8*i+4] =  (a[3*i+1] >> 4) & 7;
    r->coeffs[8*i+5] = ((a[3*i+1] >> 7) | (a[3*i+2] << 1)) & 7;
    r->coeffs[8*i+6] =  (a[3*i+2] >> 2) & 7;
    r->coeffs[8*i+7] =  (a[3*i+2] >> 5) & 7;

    r->coeffs[8*i+0] = ETA - r->coeffs[8*i+0];
    1120:	00200313          	li	t1,2
    r->coeffs[8*i+0] =  (a[3*i+0] >> 0) & 7;
    1124:	0005ce83          	lbu	t4,0(a1)
    1128:	007efe93          	andi	t4,t4,7
    112c:	01d7a023          	sw	t4,0(a5)
    r->coeffs[8*i+1] =  (a[3*i+0] >> 3) & 7;
    1130:	0005c883          	lbu	a7,0(a1)
    1134:	0038d893          	srli	a7,a7,0x3
    1138:	0078f893          	andi	a7,a7,7
    113c:	0117a223          	sw	a7,4(a5)
    r->coeffs[8*i+2] = ((a[3*i+0] >> 6) | (a[3*i+1] << 2)) & 7;
    1140:	0005c683          	lbu	a3,0(a1)
    1144:	0066d693          	srli	a3,a3,0x6
    1148:	0015c703          	lbu	a4,1(a1)
    114c:	00271713          	slli	a4,a4,0x2
    1150:	00e6e6b3          	or	a3,a3,a4
    1154:	0076f693          	andi	a3,a3,7
    1158:	00d7a423          	sw	a3,8(a5)
    r->coeffs[8*i+3] =  (a[3*i+1] >> 1) & 7;
    115c:	0015c803          	lbu	a6,1(a1)
    1160:	00185813          	srli	a6,a6,0x1
    1164:	00787813          	andi	a6,a6,7
    1168:	0107a623          	sw	a6,12(a5)
    r->coeffs[8*i+4] =  (a[3*i+1] >> 4) & 7;
    116c:	0015c503          	lbu	a0,1(a1)
    1170:	00455513          	srli	a0,a0,0x4
    1174:	00757513          	andi	a0,a0,7
    1178:	00a7a823          	sw	a0,16(a5)
    r->coeffs[8*i+5] = ((a[3*i+1] >> 7) | (a[3*i+2] << 1)) & 7;
    117c:	0015c703          	lbu	a4,1(a1)
    1180:	00775713          	srli	a4,a4,0x7
    1184:	0025c603          	lbu	a2,2(a1)
    1188:	00161613          	slli	a2,a2,0x1
    118c:	00c76733          	or	a4,a4,a2
    1190:	00777713          	andi	a4,a4,7
    1194:	00e7aa23          	sw	a4,20(a5)
    r->coeffs[8*i+6] =  (a[3*i+2] >> 2) & 7;
    1198:	0025c603          	lbu	a2,2(a1)
    119c:	00265613          	srli	a2,a2,0x2
    11a0:	00767613          	andi	a2,a2,7
    11a4:	00c7ac23          	sw	a2,24(a5)
    r->coeffs[8*i+7] =  (a[3*i+2] >> 5) & 7;
    11a8:	0025cf03          	lbu	t5,2(a1)
    11ac:	005f5f13          	srli	t5,t5,0x5
    r->coeffs[8*i+0] = ETA - r->coeffs[8*i+0];
    11b0:	41d30eb3          	sub	t4,t1,t4
    11b4:	01d7a023          	sw	t4,0(a5)
    r->coeffs[8*i+1] = ETA - r->coeffs[8*i+1];
    11b8:	411308b3          	sub	a7,t1,a7
    11bc:	0117a223          	sw	a7,4(a5)
    r->coeffs[8*i+2] = ETA - r->coeffs[8*i+2];
    11c0:	40d306b3          	sub	a3,t1,a3
    11c4:	00d7a423          	sw	a3,8(a5)
    r->coeffs[8*i+3] = ETA - r->coeffs[8*i+3];
    11c8:	41030833          	sub	a6,t1,a6
    11cc:	0107a623          	sw	a6,12(a5)
    r->coeffs[8*i+4] = ETA - r->coeffs[8*i+4];
    11d0:	40a30533          	sub	a0,t1,a0
    11d4:	00a7a823          	sw	a0,16(a5)
    r->coeffs[8*i+5] = ETA - r->coeffs[8*i+5];
    11d8:	40e30733          	sub	a4,t1,a4
    11dc:	00e7aa23          	sw	a4,20(a5)
    r->coeffs[8*i+6] = ETA - r->coeffs[8*i+6];
    11e0:	40c30633          	sub	a2,t1,a2
    11e4:	00c7ac23          	sw	a2,24(a5)
    r->coeffs[8*i+7] = ETA - r->coeffs[8*i+7];
    11e8:	41e30733          	sub	a4,t1,t5
    11ec:	00e7ae23          	sw	a4,28(a5)
  for(i = 0; i < N/8; ++i) {
    11f0:	00358593          	addi	a1,a1,3
    11f4:	02078793          	addi	a5,a5,32
    11f8:	f3c796e3          	bne	a5,t3,1124 <pqcrystals_dilithium2_ref_polyeta_unpack+0xc>
    r->coeffs[2*i+1] = ETA - r->coeffs[2*i+1];
  }
#endif

  DBENCH_STOP(*tpack);
}
    11fc:	00008067          	ret

00001200 <pqcrystals_dilithium2_ref_polyt0_unpack>:
**************************************************/
void polyt0_unpack(poly *r, const uint8_t *a) {
  unsigned int i;
  DBENCH_START();

  for(i = 0; i < N/8; ++i) {
    1200:	1a058893          	addi	a7,a1,416
    r->coeffs[8*i+0]  = a[13*i+0];
    r->coeffs[8*i+0] |= (uint32_t)a[13*i+1] << 8;
    r->coeffs[8*i+0] &= 0x1FFF;
    1204:	00002837          	lui	a6,0x2
    1208:	fff80813          	addi	a6,a6,-1 # 1fff <KeccakF1600_StatePermute+0x61f>

    r->coeffs[8*i+7]  = a[13*i+11] >> 3;
    r->coeffs[8*i+7] |= (uint32_t)a[13*i+12] << 5;
    r->coeffs[8*i+7] &= 0x1FFF;

    r->coeffs[8*i+0] = (1 << (D-1)) - r->coeffs[8*i+0];
    120c:	000016b7          	lui	a3,0x1
    r->coeffs[8*i+0]  = a[13*i+0];
    1210:	0005c783          	lbu	a5,0(a1)
    1214:	00f52023          	sw	a5,0(a0)
    r->coeffs[8*i+0] |= (uint32_t)a[13*i+1] << 8;
    1218:	0015c303          	lbu	t1,1(a1)
    121c:	00831313          	slli	t1,t1,0x8
    1220:	00f36333          	or	t1,t1,a5
    r->coeffs[8*i+0] &= 0x1FFF;
    1224:	01037333          	and	t1,t1,a6
    1228:	00652023          	sw	t1,0(a0)
    r->coeffs[8*i+1]  = a[13*i+1] >> 5;
    122c:	0015c703          	lbu	a4,1(a1)
    1230:	00575713          	srli	a4,a4,0x5
    1234:	00e52223          	sw	a4,4(a0)
    r->coeffs[8*i+1] |= (uint32_t)a[13*i+2] << 3;
    1238:	0025c783          	lbu	a5,2(a1)
    123c:	00379793          	slli	a5,a5,0x3
    1240:	00e7e7b3          	or	a5,a5,a4
    1244:	00f52223          	sw	a5,4(a0)
    r->coeffs[8*i+1] |= (uint32_t)a[13*i+3] << 11;
    1248:	0035ce83          	lbu	t4,3(a1)
    124c:	00be9e93          	slli	t4,t4,0xb
    1250:	00feeeb3          	or	t4,t4,a5
    r->coeffs[8*i+1] &= 0x1FFF;
    1254:	010efeb3          	and	t4,t4,a6
    1258:	01d52223          	sw	t4,4(a0)
    r->coeffs[8*i+2]  = a[13*i+3] >> 2;
    125c:	0035c783          	lbu	a5,3(a1)
    1260:	0027d793          	srli	a5,a5,0x2
    1264:	00f52423          	sw	a5,8(a0)
    r->coeffs[8*i+2] |= (uint32_t)a[13*i+4] << 6;
    1268:	0045ce03          	lbu	t3,4(a1)
    126c:	006e1e13          	slli	t3,t3,0x6
    1270:	00fe6e33          	or	t3,t3,a5
    r->coeffs[8*i+2] &= 0x1FFF;
    1274:	010e7e33          	and	t3,t3,a6
    1278:	01c52423          	sw	t3,8(a0)
    r->coeffs[8*i+3]  = a[13*i+4] >> 7;
    127c:	0045c703          	lbu	a4,4(a1)
    1280:	00775713          	srli	a4,a4,0x7
    1284:	00e52623          	sw	a4,12(a0)
    r->coeffs[8*i+3] |= (uint32_t)a[13*i+5] << 1;
    1288:	0055c783          	lbu	a5,5(a1)
    128c:	00179793          	slli	a5,a5,0x1
    1290:	00e7e7b3          	or	a5,a5,a4
    1294:	00f52623          	sw	a5,12(a0)
    r->coeffs[8*i+3] |= (uint32_t)a[13*i+6] << 9;
    1298:	0065cf03          	lbu	t5,6(a1)
    129c:	009f1f13          	slli	t5,t5,0x9
    12a0:	00ff6f33          	or	t5,t5,a5
    r->coeffs[8*i+3] &= 0x1FFF;
    12a4:	010f7f33          	and	t5,t5,a6
    12a8:	01e52623          	sw	t5,12(a0)
    r->coeffs[8*i+4]  = a[13*i+6] >> 4;
    12ac:	0065c703          	lbu	a4,6(a1)
    12b0:	00475713          	srli	a4,a4,0x4
    12b4:	00e52823          	sw	a4,16(a0)
    r->coeffs[8*i+4] |= (uint32_t)a[13*i+7] << 4;
    12b8:	0075c783          	lbu	a5,7(a1)
    12bc:	00479793          	slli	a5,a5,0x4
    12c0:	00e7e7b3          	or	a5,a5,a4
    12c4:	00f52823          	sw	a5,16(a0)
    r->coeffs[8*i+4] |= (uint32_t)a[13*i+8] << 12;
    12c8:	0085c703          	lbu	a4,8(a1)
    12cc:	00c71713          	slli	a4,a4,0xc
    12d0:	00f767b3          	or	a5,a4,a5
    r->coeffs[8*i+4] &= 0x1FFF;
    12d4:	0107ffb3          	and	t6,a5,a6
    12d8:	01f52823          	sw	t6,16(a0)
    r->coeffs[8*i+5]  = a[13*i+8] >> 1;
    12dc:	0085c783          	lbu	a5,8(a1)
    12e0:	0017d793          	srli	a5,a5,0x1
    12e4:	00f52a23          	sw	a5,20(a0)
    r->coeffs[8*i+5] |= (uint32_t)a[13*i+9] << 7;
    12e8:	0095c703          	lbu	a4,9(a1)
    12ec:	00771713          	slli	a4,a4,0x7
    12f0:	00f76733          	or	a4,a4,a5
    r->coeffs[8*i+5] &= 0x1FFF;
    12f4:	01077733          	and	a4,a4,a6
    12f8:	00e52a23          	sw	a4,20(a0)
    r->coeffs[8*i+6]  = a[13*i+9] >> 6;
    12fc:	0095c783          	lbu	a5,9(a1)
    1300:	0067d793          	srli	a5,a5,0x6
    1304:	00f52c23          	sw	a5,24(a0)
    r->coeffs[8*i+6] |= (uint32_t)a[13*i+10] << 2;
    1308:	00a5c603          	lbu	a2,10(a1)
    130c:	00261613          	slli	a2,a2,0x2
    1310:	00f66633          	or	a2,a2,a5
    1314:	00c52c23          	sw	a2,24(a0)
    r->coeffs[8*i+6] |= (uint32_t)a[13*i+11] << 10;
    1318:	00b5c783          	lbu	a5,11(a1)
    131c:	00a79793          	slli	a5,a5,0xa
    1320:	00c7e7b3          	or	a5,a5,a2
    r->coeffs[8*i+6] &= 0x1FFF;
    1324:	0107f7b3          	and	a5,a5,a6
    1328:	00f52c23          	sw	a5,24(a0)
    r->coeffs[8*i+7]  = a[13*i+11] >> 3;
    132c:	00b5c283          	lbu	t0,11(a1)
    1330:	0032d293          	srli	t0,t0,0x3
    1334:	00552e23          	sw	t0,28(a0)
    r->coeffs[8*i+7] |= (uint32_t)a[13*i+12] << 5;
    1338:	00c5c603          	lbu	a2,12(a1)
    133c:	00561613          	slli	a2,a2,0x5
    1340:	00566633          	or	a2,a2,t0
    r->coeffs[8*i+0] = (1 << (D-1)) - r->coeffs[8*i+0];
    1344:	40668333          	sub	t1,a3,t1
    1348:	00652023          	sw	t1,0(a0)
    r->coeffs[8*i+1] = (1 << (D-1)) - r->coeffs[8*i+1];
    134c:	41d68eb3          	sub	t4,a3,t4
    1350:	01d52223          	sw	t4,4(a0)
    r->coeffs[8*i+2] = (1 << (D-1)) - r->coeffs[8*i+2];
    1354:	41c68e33          	sub	t3,a3,t3
    1358:	01c52423          	sw	t3,8(a0)
    r->coeffs[8*i+3] = (1 << (D-1)) - r->coeffs[8*i+3];
    135c:	41e68f33          	sub	t5,a3,t5
    1360:	01e52623          	sw	t5,12(a0)
    r->coeffs[8*i+4] = (1 << (D-1)) - r->coeffs[8*i+4];
    1364:	41f68fb3          	sub	t6,a3,t6
    1368:	01f52823          	sw	t6,16(a0)
    r->coeffs[8*i+5] = (1 << (D-1)) - r->coeffs[8*i+5];
    136c:	40e68733          	sub	a4,a3,a4
    1370:	00e52a23          	sw	a4,20(a0)
    r->coeffs[8*i+6] = (1 << (D-1)) - r->coeffs[8*i+6];
    1374:	40f687b3          	sub	a5,a3,a5
    1378:	00f52c23          	sw	a5,24(a0)
    r->coeffs[8*i+7] = (1 << (D-1)) - r->coeffs[8*i+7];
    137c:	40c687b3          	sub	a5,a3,a2
    1380:	00f52e23          	sw	a5,28(a0)
  for(i = 0; i < N/8; ++i) {
    1384:	00d58593          	addi	a1,a1,13
    1388:	02050513          	addi	a0,a0,32
    138c:	e91592e3          	bne	a1,a7,1210 <pqcrystals_dilithium2_ref_polyt0_unpack+0x10>
  }

  DBENCH_STOP(*tpack);
}
    1390:	00008067          	ret

00001394 <pqcrystals_dilithium2_ref_polyz_pack>:
  unsigned int i;
  uint32_t t[4];
  DBENCH_START();

#if GAMMA1 == (1 << 17)
  for(i = 0; i < N/4; ++i) {
    1394:	00050793          	mv	a5,a0
    1398:	24050313          	addi	t1,a0,576
    t[0] = GAMMA1 - a->coeffs[4*i+0];
    139c:	00020837          	lui	a6,0x20
    13a0:	0005a603          	lw	a2,0(a1)
    13a4:	40c80633          	sub	a2,a6,a2
    t[1] = GAMMA1 - a->coeffs[4*i+1];
    13a8:	0045a683          	lw	a3,4(a1)
    13ac:	40d806b3          	sub	a3,a6,a3
    t[2] = GAMMA1 - a->coeffs[4*i+2];
    13b0:	0085a703          	lw	a4,8(a1)
    13b4:	40e80733          	sub	a4,a6,a4
    t[3] = GAMMA1 - a->coeffs[4*i+3];
    13b8:	00c5a503          	lw	a0,12(a1)
    13bc:	40a80533          	sub	a0,a6,a0

    r[9*i+0]  = t[0];
    13c0:	00c78023          	sb	a2,0(a5)
    r[9*i+1]  = t[0] >> 8;
    13c4:	00865893          	srli	a7,a2,0x8
    13c8:	011780a3          	sb	a7,1(a5)
    r[9*i+2]  = t[0] >> 16;
    13cc:	01065613          	srli	a2,a2,0x10
    r[9*i+2] |= t[1] << 2;
    13d0:	00269893          	slli	a7,a3,0x2
    13d4:	01166633          	or	a2,a2,a7
    13d8:	00c78123          	sb	a2,2(a5)
    r[9*i+3]  = t[1] >> 6;
    13dc:	0066d613          	srli	a2,a3,0x6
    13e0:	00c781a3          	sb	a2,3(a5)
    r[9*i+4]  = t[1] >> 14;
    13e4:	00e6d693          	srli	a3,a3,0xe
    r[9*i+4] |= t[2] << 4;
    13e8:	00471613          	slli	a2,a4,0x4
    13ec:	00c6e6b3          	or	a3,a3,a2
    13f0:	00d78223          	sb	a3,4(a5)
    r[9*i+5]  = t[2] >> 4;
    13f4:	00475693          	srli	a3,a4,0x4
    13f8:	00d782a3          	sb	a3,5(a5)
    r[9*i+6]  = t[2] >> 12;
    13fc:	00c75713          	srli	a4,a4,0xc
    r[9*i+6] |= t[3] << 6;
    1400:	00651693          	slli	a3,a0,0x6
    1404:	00d76733          	or	a4,a4,a3
    1408:	00e78323          	sb	a4,6(a5)
    r[9*i+7]  = t[3] >> 2;
    140c:	00255713          	srli	a4,a0,0x2
    1410:	00e783a3          	sb	a4,7(a5)
    r[9*i+8]  = t[3] >> 10;
    1414:	00a55513          	srli	a0,a0,0xa
    1418:	00a78423          	sb	a0,8(a5)
  for(i = 0; i < N/4; ++i) {
    141c:	01058593          	addi	a1,a1,16
    1420:	00978793          	addi	a5,a5,9
    1424:	f6679ee3          	bne	a5,t1,13a0 <pqcrystals_dilithium2_ref_polyz_pack+0xc>
    r[5*i+4]  = t[1] >> 12;
  }
#endif

  DBENCH_STOP(*tpack);
}
    1428:	00008067          	ret

0000142c <pqcrystals_dilithium2_ref_polyz_unpack>:
void polyz_unpack(poly *r, const uint8_t *a) {
  unsigned int i;
  DBENCH_START();

#if GAMMA1 == (1 << 17)
  for(i = 0; i < N/4; ++i) {
    142c:	00050793          	mv	a5,a0
    1430:	40050e13          	addi	t3,a0,1024
    r->coeffs[4*i+0]  = a[9*i+0];
    r->coeffs[4*i+0] |= (uint32_t)a[9*i+1] << 8;
    r->coeffs[4*i+0] |= (uint32_t)a[9*i+2] << 16;
    r->coeffs[4*i+0] &= 0x3FFFF;
    1434:	00040337          	lui	t1,0x40
    1438:	fff30313          	addi	t1,t1,-1 # 3ffff <_stack_start+0x30003>
    r->coeffs[4*i+3]  = a[9*i+6] >> 6;
    r->coeffs[4*i+3] |= (uint32_t)a[9*i+7] << 2;
    r->coeffs[4*i+3] |= (uint32_t)a[9*i+8] << 10;
    r->coeffs[4*i+3] &= 0x3FFFF;

    r->coeffs[4*i+0] = GAMMA1 - r->coeffs[4*i+0];
    143c:	000208b7          	lui	a7,0x20
    r->coeffs[4*i+0]  = a[9*i+0];
    1440:	0005c683          	lbu	a3,0(a1)
    1444:	00d7a023          	sw	a3,0(a5)
    r->coeffs[4*i+0] |= (uint32_t)a[9*i+1] << 8;
    1448:	0015c703          	lbu	a4,1(a1)
    144c:	00871713          	slli	a4,a4,0x8
    1450:	00d76733          	or	a4,a4,a3
    1454:	00e7a023          	sw	a4,0(a5)
    r->coeffs[4*i+0] |= (uint32_t)a[9*i+2] << 16;
    1458:	0025c603          	lbu	a2,2(a1)
    145c:	01061613          	slli	a2,a2,0x10
    1460:	00e66633          	or	a2,a2,a4
    r->coeffs[4*i+0] &= 0x3FFFF;
    1464:	00667633          	and	a2,a2,t1
    1468:	00c7a023          	sw	a2,0(a5)
    r->coeffs[4*i+1]  = a[9*i+2] >> 2;
    146c:	0025c683          	lbu	a3,2(a1)
    1470:	0026d693          	srli	a3,a3,0x2
    1474:	00d7a223          	sw	a3,4(a5)
    r->coeffs[4*i+1] |= (uint32_t)a[9*i+3] << 6;
    1478:	0035c703          	lbu	a4,3(a1)
    147c:	00671713          	slli	a4,a4,0x6
    1480:	00d76733          	or	a4,a4,a3
    1484:	00e7a223          	sw	a4,4(a5)
    r->coeffs[4*i+1] |= (uint32_t)a[9*i+4] << 14;
    1488:	0045c683          	lbu	a3,4(a1)
    148c:	00e69693          	slli	a3,a3,0xe
    1490:	00e6e6b3          	or	a3,a3,a4
    r->coeffs[4*i+1] &= 0x3FFFF;
    1494:	0066f6b3          	and	a3,a3,t1
    1498:	00d7a223          	sw	a3,4(a5)
    r->coeffs[4*i+2]  = a[9*i+4] >> 4;
    149c:	0045c703          	lbu	a4,4(a1)
    14a0:	00475713          	srli	a4,a4,0x4
    14a4:	00e7a423          	sw	a4,8(a5)
    r->coeffs[4*i+2] |= (uint32_t)a[9*i+5] << 4;
    14a8:	0055c503          	lbu	a0,5(a1)
    14ac:	00451513          	slli	a0,a0,0x4
    14b0:	00e56533          	or	a0,a0,a4
    14b4:	00a7a423          	sw	a0,8(a5)
    r->coeffs[4*i+2] |= (uint32_t)a[9*i+6] << 12;
    14b8:	0065c703          	lbu	a4,6(a1)
    14bc:	00c71713          	slli	a4,a4,0xc
    14c0:	00a76733          	or	a4,a4,a0
    r->coeffs[4*i+2] &= 0x3FFFF;
    14c4:	00677733          	and	a4,a4,t1
    14c8:	00e7a423          	sw	a4,8(a5)
    r->coeffs[4*i+3]  = a[9*i+6] >> 6;
    14cc:	0065c503          	lbu	a0,6(a1)
    14d0:	00655513          	srli	a0,a0,0x6
    14d4:	00a7a623          	sw	a0,12(a5)
    r->coeffs[4*i+3] |= (uint32_t)a[9*i+7] << 2;
    14d8:	0075c803          	lbu	a6,7(a1)
    14dc:	00281813          	slli	a6,a6,0x2
    14e0:	00a86833          	or	a6,a6,a0
    14e4:	0107a623          	sw	a6,12(a5)
    r->coeffs[4*i+3] |= (uint32_t)a[9*i+8] << 10;
    14e8:	0085c503          	lbu	a0,8(a1)
    14ec:	00a51513          	slli	a0,a0,0xa
    14f0:	01056533          	or	a0,a0,a6
    r->coeffs[4*i+0] = GAMMA1 - r->coeffs[4*i+0];
    14f4:	40c88633          	sub	a2,a7,a2
    14f8:	00c7a023          	sw	a2,0(a5)
    r->coeffs[4*i+1] = GAMMA1 - r->coeffs[4*i+1];
    14fc:	40d886b3          	sub	a3,a7,a3
    1500:	00d7a223          	sw	a3,4(a5)
    r->coeffs[4*i+2] = GAMMA1 - r->coeffs[4*i+2];
    1504:	40e88733          	sub	a4,a7,a4
    1508:	00e7a423          	sw	a4,8(a5)
    r->coeffs[4*i+3] = GAMMA1 - r->coeffs[4*i+3];
    150c:	40a88733          	sub	a4,a7,a0
    1510:	00e7a623          	sw	a4,12(a5)
  for(i = 0; i < N/4; ++i) {
    1514:	00958593          	addi	a1,a1,9
    1518:	01078793          	addi	a5,a5,16
    151c:	f3c792e3          	bne	a5,t3,1440 <pqcrystals_dilithium2_ref_polyz_unpack+0x14>
    r->coeffs[2*i+1] = GAMMA1 - r->coeffs[2*i+1];
  }
#endif

  DBENCH_STOP(*tpack);
}
    1520:	00008067          	ret

00001524 <pqcrystals_dilithium2_ref_poly_uniform_gamma1>:
{
    1524:	c7010113          	addi	sp,sp,-912
    1528:	38112623          	sw	ra,908(sp)
    152c:	38812423          	sw	s0,904(sp)
    1530:	38912223          	sw	s1,900(sp)
    1534:	39212023          	sw	s2,896(sp)
    1538:	00050913          	mv	s2,a0
  stream256_init(&state, seed, nonce);
    153c:	00810493          	addi	s1,sp,8
    1540:	00048513          	mv	a0,s1
    1544:	0e9020ef          	jal	3e2c <pqcrystals_dilithium2_ref_dilithium_shake256_stream_init>
  stream256_squeezeblocks(buf, POLY_UNIFORM_GAMMA1_NBLOCKS, &state);
    1548:	0d810413          	addi	s0,sp,216
    154c:	00048613          	mv	a2,s1
    1550:	00500593          	li	a1,5
    1554:	00040513          	mv	a0,s0
    1558:	064020ef          	jal	35bc <pqcrystals_fips202_ref_shake256_squeezeblocks>
  polyz_unpack(a, buf);
    155c:	00040593          	mv	a1,s0
    1560:	00090513          	mv	a0,s2
    1564:	ec9ff0ef          	jal	142c <pqcrystals_dilithium2_ref_polyz_unpack>
}
    1568:	38c12083          	lw	ra,908(sp)
    156c:	38812403          	lw	s0,904(sp)
    1570:	38412483          	lw	s1,900(sp)
    1574:	38012903          	lw	s2,896(sp)
    1578:	39010113          	addi	sp,sp,912
    157c:	00008067          	ret

00001580 <pqcrystals_dilithium2_ref_polyw1_pack>:
void polyw1_pack(uint8_t *r, const poly *a) {
  unsigned int i;
  DBENCH_START();

#if GAMMA2 == (Q-1)/88
  for(i = 0; i < N/4; ++i) {
    1580:	00050793          	mv	a5,a0
    1584:	0c050613          	addi	a2,a0,192
    r[3*i+0]  = a->coeffs[4*i+0];
    1588:	0005c703          	lbu	a4,0(a1)
    158c:	00e78023          	sb	a4,0(a5)
    r[3*i+0] |= a->coeffs[4*i+1] << 6;
    1590:	0045a683          	lw	a3,4(a1)
    1594:	00669693          	slli	a3,a3,0x6
    1598:	00d76733          	or	a4,a4,a3
    159c:	00e78023          	sb	a4,0(a5)
    r[3*i+1]  = a->coeffs[4*i+1] >> 2;
    15a0:	0045a703          	lw	a4,4(a1)
    15a4:	40275713          	srai	a4,a4,0x2
    15a8:	0ff77713          	zext.b	a4,a4
    15ac:	00e780a3          	sb	a4,1(a5)
    r[3*i+1] |= a->coeffs[4*i+2] << 4;
    15b0:	0085a683          	lw	a3,8(a1)
    15b4:	00469693          	slli	a3,a3,0x4
    15b8:	00d76733          	or	a4,a4,a3
    15bc:	00e780a3          	sb	a4,1(a5)
    r[3*i+2]  = a->coeffs[4*i+2] >> 4;
    15c0:	0085a703          	lw	a4,8(a1)
    15c4:	40475713          	srai	a4,a4,0x4
    15c8:	0ff77713          	zext.b	a4,a4
    15cc:	00e78123          	sb	a4,2(a5)
    r[3*i+2] |= a->coeffs[4*i+3] << 2;
    15d0:	00c5a683          	lw	a3,12(a1)
    15d4:	00269693          	slli	a3,a3,0x2
    15d8:	00d76733          	or	a4,a4,a3
    15dc:	00e78123          	sb	a4,2(a5)
  for(i = 0; i < N/4; ++i) {
    15e0:	01058593          	addi	a1,a1,16
    15e4:	00378793          	addi	a5,a5,3
    15e8:	fac790e3          	bne	a5,a2,1588 <pqcrystals_dilithium2_ref_polyw1_pack+0x8>
  for(i = 0; i < N/2; ++i)
    r[i] = a->coeffs[2*i+0] | (a->coeffs[2*i+1] << 4);
#endif

  DBENCH_STOP(*tpack);
}
    15ec:	00008067          	ret

000015f0 <pqcrystals_dilithium2_ref_ntt>:
* Description: Forward NTT, in-place. No modular reduction is performed after
*              additions or subtractions. Output vector is in bitreversed order.
*
* Arguments:   - uint32_t p[N]: input/output coefficient array
**************************************************/
void ntt(int32_t a[N]) {
    15f0:	fb010113          	addi	sp,sp,-80
    15f4:	04112623          	sw	ra,76(sp)
    15f8:	04812423          	sw	s0,72(sp)
    15fc:	04912223          	sw	s1,68(sp)
    1600:	05212023          	sw	s2,64(sp)
    1604:	03312e23          	sw	s3,60(sp)
    1608:	03412c23          	sw	s4,56(sp)
    160c:	03512a23          	sw	s5,52(sp)
    1610:	03612823          	sw	s6,48(sp)
    1614:	03712623          	sw	s7,44(sp)
    1618:	03812423          	sw	s8,40(sp)
    161c:	03912223          	sw	s9,36(sp)
    1620:	03a12023          	sw	s10,32(sp)
    1624:	01b12e23          	sw	s11,28(sp)
    1628:	00050c93          	mv	s9,a0

  k = 0;
  for(len = 128; len > 0; len >>= 1) {
    for(start = 0; start < N; start = j + len) {
      zeta = zetas[++k];
      for(j = start; j < start + len; ++j) {
    162c:	00800793          	li	a5,8
    1630:	00f12623          	sw	a5,12(sp)
  k = 0;
    1634:	00000c13          	li	s8,0
  for(len = 128; len > 0; len >>= 1) {
    1638:	08000d13          	li	s10,128
    163c:	0b00006f          	j	16ec <pqcrystals_dilithium2_ref_ntt+0xfc>
    1640:	015d8ab3          	add	s5,s11,s5
    for(start = 0; start < N; start = j + len) {
    1644:	01570ab3          	add	s5,a4,s5
    1648:	004b8b93          	addi	s7,s7,4
    164c:	0ff00793          	li	a5,255
    1650:	0957e463          	bltu	a5,s5,16d8 <pqcrystals_dilithium2_ref_ntt+0xe8>
      zeta = zetas[++k];
    1654:	001c0c13          	addi	s8,s8,1
    1658:	000ba903          	lw	s2,0(s7)
      for(j = start; j < start + len; ++j) {
    165c:	015d0a33          	add	s4,s10,s5
    1660:	002a1493          	slli	s1,s4,0x2
    1664:	019484b3          	add	s1,s1,s9
    1668:	002a9413          	slli	s0,s5,0x2
    166c:	01940433          	add	s0,s0,s9
    1670:	000a8993          	mv	s3,s5
        t = montgomery_reduce((int64_t)zeta * a[j + len]);
    1674:	41f95b13          	srai	s6,s2,0x1f
    1678:	0004a503          	lw	a0,0(s1)
    167c:	41f55793          	srai	a5,a0,0x1f
    1680:	032787b3          	mul	a5,a5,s2
    1684:	02ab0733          	mul	a4,s6,a0
    1688:	00e787b3          	add	a5,a5,a4
    168c:	032535b3          	mulhu	a1,a0,s2
    1690:	03250533          	mul	a0,a0,s2
    1694:	00b785b3          	add	a1,a5,a1
    1698:	22c000ef          	jal	18c4 <pqcrystals_dilithium2_ref_montgomery_reduce>
        a[j + len] = a[j] - t;
    169c:	00042783          	lw	a5,0(s0)
    16a0:	40a787b3          	sub	a5,a5,a0
    16a4:	00f4a023          	sw	a5,0(s1)
        a[j] = a[j] + t;
    16a8:	00042783          	lw	a5,0(s0)
    16ac:	00a787b3          	add	a5,a5,a0
    16b0:	00f42023          	sw	a5,0(s0)
      for(j = start; j < start + len; ++j) {
    16b4:	00198993          	addi	s3,s3,1
    16b8:	00448493          	addi	s1,s1,4
    16bc:	00440413          	addi	s0,s0,4
    16c0:	fb49ece3          	bltu	s3,s4,1678 <pqcrystals_dilithium2_ref_ntt+0x88>
    16c4:	001a8793          	addi	a5,s5,1 # 1001 <pqcrystals_dilithium2_ref_poly_challenge+0x8d>
    16c8:	00000713          	li	a4,0
    16cc:	f6fa6ae3          	bltu	s4,a5,1640 <pqcrystals_dilithium2_ref_ntt+0x50>
    16d0:	00812703          	lw	a4,8(sp)
    16d4:	f6dff06f          	j	1640 <pqcrystals_dilithium2_ref_ntt+0x50>
  for(len = 128; len > 0; len >>= 1) {
    16d8:	001d5d13          	srli	s10,s10,0x1
    16dc:	00c12783          	lw	a5,12(sp)
    16e0:	fff78793          	addi	a5,a5,-1
    16e4:	00f12623          	sw	a5,12(sp)
    16e8:	02078463          	beqz	a5,1710 <pqcrystals_dilithium2_ref_ntt+0x120>
    for(start = 0; start < N; start = j + len) {
    16ec:	002c1b93          	slli	s7,s8,0x2
    16f0:	00002797          	auipc	a5,0x2
    16f4:	7b478793          	addi	a5,a5,1972 # 3ea4 <__DTOR_END__+0x4>
    16f8:	00fb8bb3          	add	s7,s7,a5
    16fc:	00000a93          	li	s5,0
    1700:	fffd0793          	addi	a5,s10,-1
    1704:	00f12423          	sw	a5,8(sp)
    1708:	001d0d93          	addi	s11,s10,1
    170c:	f49ff06f          	j	1654 <pqcrystals_dilithium2_ref_ntt+0x64>
      }
    }
  }
}
    1710:	04c12083          	lw	ra,76(sp)
    1714:	04812403          	lw	s0,72(sp)
    1718:	04412483          	lw	s1,68(sp)
    171c:	04012903          	lw	s2,64(sp)
    1720:	03c12983          	lw	s3,60(sp)
    1724:	03812a03          	lw	s4,56(sp)
    1728:	03412a83          	lw	s5,52(sp)
    172c:	03012b03          	lw	s6,48(sp)
    1730:	02c12b83          	lw	s7,44(sp)
    1734:	02812c03          	lw	s8,40(sp)
    1738:	02412c83          	lw	s9,36(sp)
    173c:	02012d03          	lw	s10,32(sp)
    1740:	01c12d83          	lw	s11,28(sp)
    1744:	05010113          	addi	sp,sp,80
    1748:	00008067          	ret

0000174c <pqcrystals_dilithium2_ref_invntt_tomont>:
*              Q in absolute value. Output coefficient are smaller than Q in
*              absolute value.
*
* Arguments:   - uint32_t p[N]: input/output coefficient array
**************************************************/
void invntt_tomont(int32_t a[N]) {
    174c:	fc010113          	addi	sp,sp,-64
    1750:	02112e23          	sw	ra,60(sp)
    1754:	02812c23          	sw	s0,56(sp)
    1758:	02912a23          	sw	s1,52(sp)
    175c:	03212823          	sw	s2,48(sp)
    1760:	03312623          	sw	s3,44(sp)
    1764:	03412423          	sw	s4,40(sp)
    1768:	03512223          	sw	s5,36(sp)
    176c:	03612023          	sw	s6,32(sp)
    1770:	01712e23          	sw	s7,28(sp)
    1774:	01812c23          	sw	s8,24(sp)
    1778:	01912a23          	sw	s9,20(sp)
    177c:	01a12823          	sw	s10,16(sp)
    1780:	01b12623          	sw	s11,12(sp)
    1784:	00050b13          	mv	s6,a0
  const int32_t f = 41978; // mont^2/256

  k = 256;
  for(len = 1; len < N; len <<= 1) {
    for(start = 0; start < N; start = j + len) {
      zeta = -zetas[--k];
    1788:	00800d93          	li	s11,8
  k = 256;
    178c:	10000c93          	li	s9,256
  for(len = 1; len < N; len <<= 1) {
    1790:	00100c13          	li	s8,1
    for(start = 0; start < N; start = j + len) {
    1794:	0ff00d13          	li	s10,255
    1798:	0940006f          	j	182c <pqcrystals_dilithium2_ref_invntt_tomont+0xe0>
    179c:	ffcb8b93          	addi	s7,s7,-4
      zeta = -zetas[--k];
    17a0:	fffc8c93          	addi	s9,s9,-1
      for(j = start; j < start + len; ++j) {
    17a4:	01848ab3          	add	s5,s1,s8
    17a8:	1154f863          	bgeu	s1,s5,18b8 <pqcrystals_dilithium2_ref_invntt_tomont+0x16c>
      zeta = -zetas[--k];
    17ac:	000ba903          	lw	s2,0(s7)
    17b0:	41200933          	neg	s2,s2
    17b4:	00249493          	slli	s1,s1,0x2
    17b8:	016484b3          	add	s1,s1,s6
    17bc:	002a9993          	slli	s3,s5,0x2
    17c0:	016989b3          	add	s3,s3,s6
    17c4:	00098413          	mv	s0,s3
        t = a[j];
        a[j] = t + a[j + len];
        a[j + len] = t - a[j + len];
        a[j + len] = montgomery_reduce((int64_t)zeta * a[j + len]);
    17c8:	41f95a13          	srai	s4,s2,0x1f
        t = a[j];
    17cc:	0004a503          	lw	a0,0(s1)
        a[j] = t + a[j + len];
    17d0:	00042783          	lw	a5,0(s0)
    17d4:	00a787b3          	add	a5,a5,a0
    17d8:	00f4a023          	sw	a5,0(s1)
        a[j + len] = t - a[j + len];
    17dc:	00042783          	lw	a5,0(s0)
    17e0:	40f50533          	sub	a0,a0,a5
    17e4:	00a42023          	sw	a0,0(s0)
        a[j + len] = montgomery_reduce((int64_t)zeta * a[j + len]);
    17e8:	41f55713          	srai	a4,a0,0x1f
    17ec:	02aa07b3          	mul	a5,s4,a0
    17f0:	03270733          	mul	a4,a4,s2
    17f4:	00e787b3          	add	a5,a5,a4
    17f8:	02a935b3          	mulhu	a1,s2,a0
    17fc:	02a90533          	mul	a0,s2,a0
    1800:	00b785b3          	add	a1,a5,a1
    1804:	0c0000ef          	jal	18c4 <pqcrystals_dilithium2_ref_montgomery_reduce>
    1808:	00a42023          	sw	a0,0(s0)
      for(j = start; j < start + len; ++j) {
    180c:	00448493          	addi	s1,s1,4
    1810:	00440413          	addi	s0,s0,4
    1814:	fb349ce3          	bne	s1,s3,17cc <pqcrystals_dilithium2_ref_invntt_tomont+0x80>
    for(start = 0; start < N; start = j + len) {
    1818:	018a84b3          	add	s1,s5,s8
    181c:	f89d70e3          	bgeu	s10,s1,179c <pqcrystals_dilithium2_ref_invntt_tomont+0x50>
  for(len = 1; len < N; len <<= 1) {
    1820:	001c1c13          	slli	s8,s8,0x1
    1824:	fffd8d93          	addi	s11,s11,-1
    1828:	000d8e63          	beqz	s11,1844 <pqcrystals_dilithium2_ref_invntt_tomont+0xf8>
    for(start = 0; start < N; start = j + len) {
    182c:	002c9b93          	slli	s7,s9,0x2
    1830:	00002797          	auipc	a5,0x2
    1834:	66c78793          	addi	a5,a5,1644 # 3e9c <__CTOR_END__+0x4>
    1838:	00fb8bb3          	add	s7,s7,a5
    183c:	00000493          	li	s1,0
    1840:	f61ff06f          	j	17a0 <pqcrystals_dilithium2_ref_invntt_tomont+0x54>
    1844:	000b0413          	mv	s0,s6
    1848:	400b0b13          	addi	s6,s6,1024
      }
    }
  }

  for(j = 0; j < N; ++j) {
    a[j] = montgomery_reduce((int64_t)f * a[j]);
    184c:	0000a4b7          	lui	s1,0xa
    1850:	3fa48493          	addi	s1,s1,1018 # a3fa <_stack+0x209a>
    1854:	00042503          	lw	a0,0(s0)
    1858:	41f55793          	srai	a5,a0,0x1f
    185c:	029787b3          	mul	a5,a5,s1
    1860:	029535b3          	mulhu	a1,a0,s1
    1864:	02950533          	mul	a0,a0,s1
    1868:	00b785b3          	add	a1,a5,a1
    186c:	058000ef          	jal	18c4 <pqcrystals_dilithium2_ref_montgomery_reduce>
    1870:	00a42023          	sw	a0,0(s0)
  for(j = 0; j < N; ++j) {
    1874:	00440413          	addi	s0,s0,4
    1878:	fd641ee3          	bne	s0,s6,1854 <pqcrystals_dilithium2_ref_invntt_tomont+0x108>
  }
}
    187c:	03c12083          	lw	ra,60(sp)
    1880:	03812403          	lw	s0,56(sp)
    1884:	03412483          	lw	s1,52(sp)
    1888:	03012903          	lw	s2,48(sp)
    188c:	02c12983          	lw	s3,44(sp)
    1890:	02812a03          	lw	s4,40(sp)
    1894:	02412a83          	lw	s5,36(sp)
    1898:	02012b03          	lw	s6,32(sp)
    189c:	01c12b83          	lw	s7,28(sp)
    18a0:	01812c03          	lw	s8,24(sp)
    18a4:	01412c83          	lw	s9,20(sp)
    18a8:	01012d03          	lw	s10,16(sp)
    18ac:	00c12d83          	lw	s11,12(sp)
    18b0:	04010113          	addi	sp,sp,64
    18b4:	00008067          	ret
    for(start = 0; start < N; start = j + len) {
    18b8:	018484b3          	add	s1,s1,s8
    18bc:	ffcb8b93          	addi	s7,s7,-4
    18c0:	ee1ff06f          	j	17a0 <pqcrystals_dilithium2_ref_invntt_tomont+0x54>

000018c4 <pqcrystals_dilithium2_ref_montgomery_reduce>:
* Returns r.
**************************************************/
int32_t montgomery_reduce(int64_t a) {
  int32_t t;

  t = (int32_t)a*QINV;
    18c4:	03802737          	lui	a4,0x3802
    18c8:	00170713          	addi	a4,a4,1 # 3802001 <_stack_start+0x37f2005>
    18cc:	02e50733          	mul	a4,a0,a4
  t = (a - (int64_t)t*Q) >> 32;
    18d0:	41f75793          	srai	a5,a4,0x1f
    18d4:	ff8026b7          	lui	a3,0xff802
    18d8:	fff68693          	addi	a3,a3,-1 # ff801fff <_stack_start+0xff7f2003>
    18dc:	02d787b3          	mul	a5,a5,a3
    18e0:	40e787b3          	sub	a5,a5,a4
    18e4:	02d73733          	mulhu	a4,a4,a3
    18e8:	00e787b3          	add	a5,a5,a4
    18ec:	00a03533          	snez	a0,a0
    18f0:	00b787b3          	add	a5,a5,a1
  return t;
}
    18f4:	00f50533          	add	a0,a0,a5
    18f8:	00008067          	ret

000018fc <pqcrystals_dilithium2_ref_reduce32>:
* Returns r.
**************************************************/
int32_t reduce32(int32_t a) {
  int32_t t;

  t = (a + (1 << 22)) >> 23;
    18fc:	004007b7          	lui	a5,0x400
    1900:	00f507b3          	add	a5,a0,a5
    1904:	4177d793          	srai	a5,a5,0x17
  t = a - t*Q;
    1908:	ff802737          	lui	a4,0xff802
    190c:	fff70713          	addi	a4,a4,-1 # ff801fff <_stack_start+0xff7f2003>
    1910:	02e787b3          	mul	a5,a5,a4
  return t;
}
    1914:	00a78533          	add	a0,a5,a0
    1918:	00008067          	ret

0000191c <pqcrystals_dilithium2_ref_caddq>:
* Arguments:   - int32_t: finite field element a
*
* Returns r.
**************************************************/
int32_t caddq(int32_t a) {
  a += (a >> 31) & Q;
    191c:	41f55793          	srai	a5,a0,0x1f
    1920:	007fe737          	lui	a4,0x7fe
    1924:	00170713          	addi	a4,a4,1 # 7fe001 <_stack_start+0x7ee005>
    1928:	00e7f7b3          	and	a5,a5,a4
  return a;
}
    192c:	00a78533          	add	a0,a5,a0
    1930:	00008067          	ret

00001934 <load64>:
*
* Arguments:   - const uint8_t *x: pointer to input byte array
*
* Returns the loaded 64-bit unsigned integer
**************************************************/
static uint64_t load64(const uint8_t x[8]) {
    1934:	00050693          	mv	a3,a0
    1938:	00000713          	li	a4,0
  unsigned int i;
  uint64_t r = 0;
    193c:	00000813          	li	a6,0
    1940:	00000613          	li	a2,0

  for(i=0;i<8;i++)
    r |= (uint64_t)x[i] << 8*i;
    1944:	01f00313          	li	t1,31
  for(i=0;i<8;i++)
    1948:	04000893          	li	a7,64
    194c:	0300006f          	j	197c <load64+0x48>
    r |= (uint64_t)x[i] << 8*i;
    1950:	0017d593          	srli	a1,a5,0x1
    1954:	40e30533          	sub	a0,t1,a4
    1958:	00a5d5b3          	srl	a1,a1,a0
    195c:	00e79533          	sll	a0,a5,a4
    1960:	00a86533          	or	a0,a6,a0
    1964:	00b665b3          	or	a1,a2,a1
    1968:	00050813          	mv	a6,a0
    196c:	00058613          	mv	a2,a1
  for(i=0;i<8;i++)
    1970:	00168693          	addi	a3,a3,1
    1974:	00870713          	addi	a4,a4,8
    1978:	01170e63          	beq	a4,a7,1994 <load64+0x60>
    r |= (uint64_t)x[i] << 8*i;
    197c:	0006c783          	lbu	a5,0(a3)
    1980:	fe070593          	addi	a1,a4,-32
    1984:	fc05c6e3          	bltz	a1,1950 <load64+0x1c>
    1988:	00b795b3          	sll	a1,a5,a1
    198c:	00000513          	li	a0,0
    1990:	fd1ff06f          	j	1960 <load64+0x2c>

  return r;
}
    1994:	00008067          	ret

00001998 <store64>:
* Description: Store a 64-bit integer to array of 8 bytes in little-endian order
*
* Arguments:   - uint8_t *x: pointer to the output byte array (allocated)
*              - uint64_t u: input 64-bit unsigned integer
**************************************************/
static void store64(uint8_t x[8], uint64_t u) {
    1998:	00000713          	li	a4,0
  unsigned int i;

  for(i=0;i<8;i++)
    x[i] = u >> 8*i;
    199c:	00161313          	slli	t1,a2,0x1
    19a0:	01f00893          	li	a7,31
  for(i=0;i<8;i++)
    19a4:	04000813          	li	a6,64
    19a8:	0240006f          	j	19cc <store64+0x34>
    x[i] = u >> 8*i;
    19ac:	40e886b3          	sub	a3,a7,a4
    19b0:	00d316b3          	sll	a3,t1,a3
    19b4:	00e5d7b3          	srl	a5,a1,a4
    19b8:	00f687b3          	add	a5,a3,a5
    19bc:	00f50023          	sb	a5,0(a0)
  for(i=0;i<8;i++)
    19c0:	00870713          	addi	a4,a4,8
    19c4:	00150513          	addi	a0,a0,1
    19c8:	01070a63          	beq	a4,a6,19dc <store64+0x44>
    x[i] = u >> 8*i;
    19cc:	fe070793          	addi	a5,a4,-32
    19d0:	fc07cee3          	bltz	a5,19ac <store64+0x14>
    19d4:	00f657b3          	srl	a5,a2,a5
    19d8:	fe5ff06f          	j	19bc <store64+0x24>
}
    19dc:	00008067          	ret

000019e0 <KeccakF1600_StatePermute>:
* Description: The Keccak F1600 Permutation
*
* Arguments:   - uint64_t *state: pointer to input/output Keccak state
**************************************************/
static void KeccakF1600_StatePermute(uint64_t state[25])
{
    19e0:	f0010113          	addi	sp,sp,-256
    19e4:	0e812e23          	sw	s0,252(sp)
    19e8:	0e912c23          	sw	s1,248(sp)
    19ec:	0f212a23          	sw	s2,244(sp)
    19f0:	0f312823          	sw	s3,240(sp)
    19f4:	0f412623          	sw	s4,236(sp)
    19f8:	0f512423          	sw	s5,232(sp)
    19fc:	0f612223          	sw	s6,228(sp)
    1a00:	0f712023          	sw	s7,224(sp)
    1a04:	0d812e23          	sw	s8,220(sp)
    1a08:	0d912c23          	sw	s9,216(sp)
    1a0c:	0da12a23          	sw	s10,212(sp)
    1a10:	0db12823          	sw	s11,208(sp)
        uint64_t Eka, Eke, Eki, Eko, Eku;
        uint64_t Ema, Eme, Emi, Emo, Emu;
        uint64_t Esa, Ese, Esi, Eso, Esu;

        //copyFromState(A, state)
        Aba = state[ 0];
    1a14:	00052b83          	lw	s7,0(a0)
    1a18:	00452c03          	lw	s8,4(a0)
        Abe = state[ 1];
    1a1c:	00852783          	lw	a5,8(a0)
    1a20:	00f12223          	sw	a5,4(sp)
    1a24:	00c52783          	lw	a5,12(a0)
    1a28:	00f12423          	sw	a5,8(sp)
        Abi = state[ 2];
    1a2c:	01052783          	lw	a5,16(a0)
    1a30:	00f12623          	sw	a5,12(sp)
    1a34:	01452783          	lw	a5,20(a0)
    1a38:	00f12823          	sw	a5,16(sp)
        Abo = state[ 3];
    1a3c:	01852783          	lw	a5,24(a0)
    1a40:	00f12a23          	sw	a5,20(sp)
    1a44:	01c52783          	lw	a5,28(a0)
    1a48:	00f12c23          	sw	a5,24(sp)
        Abu = state[ 4];
    1a4c:	02052783          	lw	a5,32(a0)
    1a50:	00f12e23          	sw	a5,28(sp)
    1a54:	02452783          	lw	a5,36(a0)
    1a58:	02f12023          	sw	a5,32(sp)
        Aga = state[ 5];
    1a5c:	02852783          	lw	a5,40(a0)
    1a60:	02f12223          	sw	a5,36(sp)
    1a64:	02c52783          	lw	a5,44(a0)
    1a68:	02f12423          	sw	a5,40(sp)
        Age = state[ 6];
    1a6c:	03052c83          	lw	s9,48(a0)
    1a70:	03452783          	lw	a5,52(a0)
    1a74:	02f12623          	sw	a5,44(sp)
        Agi = state[ 7];
    1a78:	03852783          	lw	a5,56(a0)
    1a7c:	02f12823          	sw	a5,48(sp)
    1a80:	03c52783          	lw	a5,60(a0)
    1a84:	02f12a23          	sw	a5,52(sp)
        Ago = state[ 8];
    1a88:	04052783          	lw	a5,64(a0)
    1a8c:	02f12c23          	sw	a5,56(sp)
    1a90:	04452783          	lw	a5,68(a0)
    1a94:	02f12e23          	sw	a5,60(sp)
        Agu = state[ 9];
    1a98:	04852783          	lw	a5,72(a0)
    1a9c:	04f12023          	sw	a5,64(sp)
    1aa0:	04c52783          	lw	a5,76(a0)
    1aa4:	04f12223          	sw	a5,68(sp)
        Aka = state[10];
    1aa8:	05052783          	lw	a5,80(a0)
    1aac:	04f12423          	sw	a5,72(sp)
    1ab0:	05452783          	lw	a5,84(a0)
    1ab4:	04f12623          	sw	a5,76(sp)
        Ake = state[11];
    1ab8:	05852783          	lw	a5,88(a0)
    1abc:	04f12823          	sw	a5,80(sp)
    1ac0:	05c52783          	lw	a5,92(a0)
    1ac4:	04f12a23          	sw	a5,84(sp)
        Aki = state[12];
    1ac8:	06052783          	lw	a5,96(a0)
    1acc:	00078713          	mv	a4,a5
    1ad0:	06452783          	lw	a5,100(a0)
    1ad4:	04f12c23          	sw	a5,88(sp)
        Ako = state[13];
    1ad8:	06852783          	lw	a5,104(a0)
    1adc:	04f12e23          	sw	a5,92(sp)
    1ae0:	06c52783          	lw	a5,108(a0)
    1ae4:	06f12023          	sw	a5,96(sp)
        Aku = state[14];
    1ae8:	07052783          	lw	a5,112(a0)
    1aec:	06f12223          	sw	a5,100(sp)
    1af0:	07452783          	lw	a5,116(a0)
    1af4:	06f12423          	sw	a5,104(sp)
        Ama = state[15];
    1af8:	07852783          	lw	a5,120(a0)
    1afc:	06f12623          	sw	a5,108(sp)
    1b00:	07c52783          	lw	a5,124(a0)
    1b04:	06f12823          	sw	a5,112(sp)
        Ame = state[16];
    1b08:	08052d83          	lw	s11,128(a0)
    1b0c:	08452783          	lw	a5,132(a0)
    1b10:	06f12a23          	sw	a5,116(sp)
        Ami = state[17];
    1b14:	08852783          	lw	a5,136(a0)
    1b18:	06f12c23          	sw	a5,120(sp)
    1b1c:	08c52783          	lw	a5,140(a0)
    1b20:	06f12e23          	sw	a5,124(sp)
        Amo = state[18];
    1b24:	09052383          	lw	t2,144(a0)
    1b28:	09452f83          	lw	t6,148(a0)
        Amu = state[19];
    1b2c:	09852783          	lw	a5,152(a0)
    1b30:	08f12023          	sw	a5,128(sp)
    1b34:	09c52783          	lw	a5,156(a0)
    1b38:	08f12223          	sw	a5,132(sp)
        Asa = state[20];
    1b3c:	0a052783          	lw	a5,160(a0)
    1b40:	08f12423          	sw	a5,136(sp)
    1b44:	0a452783          	lw	a5,164(a0)
    1b48:	08f12623          	sw	a5,140(sp)
        Ase = state[21];
    1b4c:	0a852783          	lw	a5,168(a0)
    1b50:	08f12823          	sw	a5,144(sp)
    1b54:	0ac52783          	lw	a5,172(a0)
    1b58:	08f12a23          	sw	a5,148(sp)
        Asi = state[22];
    1b5c:	0b052d03          	lw	s10,176(a0)
    1b60:	0b452983          	lw	s3,180(a0)
        Aso = state[23];
    1b64:	0b852783          	lw	a5,184(a0)
    1b68:	08f12c23          	sw	a5,152(sp)
    1b6c:	0bc52783          	lw	a5,188(a0)
    1b70:	08f12e23          	sw	a5,156(sp)
        Asu = state[24];
    1b74:	0c052603          	lw	a2,192(a0)
    1b78:	0c452403          	lw	s0,196(a0)

        for( round = 0; round < NROUNDS; round += 2 )
    1b7c:	00002797          	auipc	a5,0x2
    1b80:	72478793          	addi	a5,a5,1828 # 42a0 <KeccakF_RoundConstants>
    1b84:	00078a93          	mv	s5,a5
    1b88:	0ca12623          	sw	a0,204(sp)
    1b8c:	0b812023          	sw	s8,160(sp)
    1b90:	0bb12223          	sw	s11,164(sp)
    1b94:	000b8d93          	mv	s11,s7
    1b98:	00070b93          	mv	s7,a4
        {
            //    prepareTheta
            BCa = Aba^Aga^Aka^Ama^Asa;
    1b9c:	02412783          	lw	a5,36(sp)
    1ba0:	00fdc333          	xor	t1,s11,a5
    1ba4:	0a012783          	lw	a5,160(sp)
    1ba8:	02812703          	lw	a4,40(sp)
    1bac:	00e7c733          	xor	a4,a5,a4
    1bb0:	04812783          	lw	a5,72(sp)
    1bb4:	00f34333          	xor	t1,t1,a5
    1bb8:	04c12783          	lw	a5,76(sp)
    1bbc:	00f74733          	xor	a4,a4,a5
    1bc0:	06c12783          	lw	a5,108(sp)
    1bc4:	00f34333          	xor	t1,t1,a5
    1bc8:	07012783          	lw	a5,112(sp)
    1bcc:	00f74733          	xor	a4,a4,a5
    1bd0:	08812783          	lw	a5,136(sp)
    1bd4:	00f34333          	xor	t1,t1,a5
    1bd8:	08c12783          	lw	a5,140(sp)
    1bdc:	00f74733          	xor	a4,a4,a5
            BCe = Abe^Age^Ake^Ame^Ase;
    1be0:	00412783          	lw	a5,4(sp)
    1be4:	0197cb33          	xor	s6,a5,s9
    1be8:	00812783          	lw	a5,8(sp)
    1bec:	02c12683          	lw	a3,44(sp)
    1bf0:	00d7c533          	xor	a0,a5,a3
    1bf4:	05012783          	lw	a5,80(sp)
    1bf8:	00fb4b33          	xor	s6,s6,a5
    1bfc:	05412783          	lw	a5,84(sp)
    1c00:	00f54533          	xor	a0,a0,a5
    1c04:	0a412783          	lw	a5,164(sp)
    1c08:	00fb4b33          	xor	s6,s6,a5
    1c0c:	07412783          	lw	a5,116(sp)
    1c10:	00f54533          	xor	a0,a0,a5
    1c14:	09012783          	lw	a5,144(sp)
    1c18:	00fb4b33          	xor	s6,s6,a5
    1c1c:	09412783          	lw	a5,148(sp)
    1c20:	00f54533          	xor	a0,a0,a5
            BCi = Abi^Agi^Aki^Ami^Asi;
    1c24:	00c12783          	lw	a5,12(sp)
    1c28:	03012683          	lw	a3,48(sp)
    1c2c:	00d7ca33          	xor	s4,a5,a3
    1c30:	01012783          	lw	a5,16(sp)
    1c34:	03412683          	lw	a3,52(sp)
    1c38:	00d7c933          	xor	s2,a5,a3
    1c3c:	017a4a33          	xor	s4,s4,s7
    1c40:	05812783          	lw	a5,88(sp)
    1c44:	00f94933          	xor	s2,s2,a5
    1c48:	07812783          	lw	a5,120(sp)
    1c4c:	00fa4a33          	xor	s4,s4,a5
    1c50:	07c12783          	lw	a5,124(sp)
    1c54:	00f94933          	xor	s2,s2,a5
    1c58:	01aa4a33          	xor	s4,s4,s10
    1c5c:	01394933          	xor	s2,s2,s3
            BCo = Abo^Ago^Ako^Amo^Aso;
    1c60:	01412783          	lw	a5,20(sp)
    1c64:	03812683          	lw	a3,56(sp)
    1c68:	00d7c4b3          	xor	s1,a5,a3
    1c6c:	01812783          	lw	a5,24(sp)
    1c70:	03c12683          	lw	a3,60(sp)
    1c74:	00d7c2b3          	xor	t0,a5,a3
    1c78:	05c12783          	lw	a5,92(sp)
    1c7c:	00f4c4b3          	xor	s1,s1,a5
    1c80:	06012783          	lw	a5,96(sp)
    1c84:	00f2c2b3          	xor	t0,t0,a5
    1c88:	0074c4b3          	xor	s1,s1,t2
    1c8c:	01f2c2b3          	xor	t0,t0,t6
    1c90:	09812783          	lw	a5,152(sp)
    1c94:	00f4c4b3          	xor	s1,s1,a5
    1c98:	09c12783          	lw	a5,156(sp)
    1c9c:	00f2c2b3          	xor	t0,t0,a5
            BCu = Abu^Agu^Aku^Amu^Asu;
    1ca0:	01c12783          	lw	a5,28(sp)
    1ca4:	04012683          	lw	a3,64(sp)
    1ca8:	00d7c8b3          	xor	a7,a5,a3
    1cac:	02012783          	lw	a5,32(sp)
    1cb0:	04412683          	lw	a3,68(sp)
    1cb4:	00d7c6b3          	xor	a3,a5,a3
    1cb8:	06412783          	lw	a5,100(sp)
    1cbc:	00f8c8b3          	xor	a7,a7,a5
    1cc0:	06812783          	lw	a5,104(sp)
    1cc4:	00f6c6b3          	xor	a3,a3,a5
    1cc8:	08012783          	lw	a5,128(sp)
    1ccc:	00f8c8b3          	xor	a7,a7,a5
    1cd0:	08412783          	lw	a5,132(sp)
    1cd4:	00f6c6b3          	xor	a3,a3,a5
    1cd8:	00c8c8b3          	xor	a7,a7,a2
    1cdc:	0086c6b3          	xor	a3,a3,s0

            //thetaRhoPiChiIotaPrepareTheta(round  , A, E)
            Da = BCu^ROL(BCe, 1);
    1ce0:	01f55813          	srli	a6,a0,0x1f
    1ce4:	001b1793          	slli	a5,s6,0x1
    1ce8:	00f80833          	add	a6,a6,a5
    1cec:	01fb5793          	srli	a5,s6,0x1f
    1cf0:	00151e93          	slli	t4,a0,0x1
    1cf4:	01d78eb3          	add	t4,a5,t4
    1cf8:	01184833          	xor	a6,a6,a7
    1cfc:	00deceb3          	xor	t4,t4,a3
            De = BCa^ROL(BCi, 1);
    1d00:	01f95593          	srli	a1,s2,0x1f
    1d04:	001a1793          	slli	a5,s4,0x1
    1d08:	00f585b3          	add	a1,a1,a5
    1d0c:	01fa5793          	srli	a5,s4,0x1f
    1d10:	00191e13          	slli	t3,s2,0x1
    1d14:	01c78e33          	add	t3,a5,t3
    1d18:	0065c5b3          	xor	a1,a1,t1
    1d1c:	00ee4e33          	xor	t3,t3,a4
            Di = BCe^ROL(BCo, 1);
    1d20:	01f2d793          	srli	a5,t0,0x1f
    1d24:	00149f13          	slli	t5,s1,0x1
    1d28:	01e787b3          	add	a5,a5,t5
    1d2c:	01f4dc13          	srli	s8,s1,0x1f
    1d30:	00129f13          	slli	t5,t0,0x1
    1d34:	01ec0f33          	add	t5,s8,t5
    1d38:	0167c7b3          	xor	a5,a5,s6
    1d3c:	00af4f33          	xor	t5,t5,a0
            Do = BCi^ROL(BCu, 1);
    1d40:	01f6db13          	srli	s6,a3,0x1f
    1d44:	00189513          	slli	a0,a7,0x1
    1d48:	00ab0533          	add	a0,s6,a0
    1d4c:	01f8d893          	srli	a7,a7,0x1f
    1d50:	00169693          	slli	a3,a3,0x1
    1d54:	00d886b3          	add	a3,a7,a3
    1d58:	01454533          	xor	a0,a0,s4
    1d5c:	0126c6b3          	xor	a3,a3,s2
            Du = BCo^ROL(BCa, 1);
    1d60:	01f75913          	srli	s2,a4,0x1f
    1d64:	00131893          	slli	a7,t1,0x1
    1d68:	011908b3          	add	a7,s2,a7
    1d6c:	01f35313          	srli	t1,t1,0x1f
    1d70:	00171713          	slli	a4,a4,0x1
    1d74:	00e30733          	add	a4,t1,a4
    1d78:	0098c8b3          	xor	a7,a7,s1
    1d7c:	00574733          	xor	a4,a4,t0

            Aba ^= Da;
    1d80:	01b84a33          	xor	s4,a6,s11
    1d84:	0a012303          	lw	t1,160(sp)
    1d88:	006ec933          	xor	s2,t4,t1
            BCa = Aba;
            Age ^= De;
    1d8c:	0195c2b3          	xor	t0,a1,s9
    1d90:	02c12303          	lw	t1,44(sp)
    1d94:	006e4333          	xor	t1,t3,t1
            BCe = ROL(Age, 44);
    1d98:	00c31b13          	slli	s6,t1,0xc
    1d9c:	0142d493          	srli	s1,t0,0x14
    1da0:	009b0b33          	add	s6,s6,s1
    1da4:	00c29293          	slli	t0,t0,0xc
    1da8:	01435313          	srli	t1,t1,0x14
    1dac:	006282b3          	add	t0,t0,t1
            Aki ^= Di;
    1db0:	0177c4b3          	xor	s1,a5,s7
    1db4:	05812303          	lw	t1,88(sp)
    1db8:	006f4333          	xor	t1,t5,t1
            BCi = ROL(Aki, 43);
    1dbc:	00b31c13          	slli	s8,t1,0xb
    1dc0:	0154db93          	srli	s7,s1,0x15
    1dc4:	017c0c33          	add	s8,s8,s7
    1dc8:	00b49493          	slli	s1,s1,0xb
    1dcc:	01535313          	srli	t1,t1,0x15
    1dd0:	006484b3          	add	s1,s1,t1
            Amo ^= Do;
    1dd4:	007543b3          	xor	t2,a0,t2
    1dd8:	01f6cfb3          	xor	t6,a3,t6
            BCo = ROL(Amo, 21);
    1ddc:	00bfdb93          	srli	s7,t6,0xb
    1de0:	01539313          	slli	t1,t2,0x15
    1de4:	006b8bb3          	add	s7,s7,t1
    1de8:	00b3d393          	srli	t2,t2,0xb
    1dec:	015f9f93          	slli	t6,t6,0x15
    1df0:	01f38333          	add	t1,t2,t6
            Asu ^= Du;
    1df4:	00c8c633          	xor	a2,a7,a2
    1df8:	00874433          	xor	s0,a4,s0
            BCu = ROL(Asu, 14);
    1dfc:	01245f93          	srli	t6,s0,0x12
    1e00:	00e61393          	slli	t2,a2,0xe
    1e04:	007f8fb3          	add	t6,t6,t2
    1e08:	01265613          	srli	a2,a2,0x12
    1e0c:	00e41413          	slli	s0,s0,0xe
    1e10:	00860633          	add	a2,a2,s0
            Eba =   BCa ^((~BCe)&  BCi );
            Eba ^= (uint64_t)KeccakF_RoundConstants[round];
    1e14:	000aad83          	lw	s11,0(s5)
    1e18:	014dcdb3          	xor	s11,s11,s4
    1e1c:	004aa403          	lw	s0,4(s5)
    1e20:	01244433          	xor	s0,s0,s2
            Eba =   BCa ^((~BCe)&  BCi );
    1e24:	fffb4c93          	not	s9,s6
    1e28:	fff2c393          	not	t2,t0
    1e2c:	018cfcb3          	and	s9,s9,s8
    1e30:	0093f3b3          	and	t2,t2,s1
            Eba ^= (uint64_t)KeccakF_RoundConstants[round];
    1e34:	019dcdb3          	xor	s11,s11,s9
    1e38:	007443b3          	xor	t2,s0,t2
    1e3c:	02712623          	sw	t2,44(sp)
            Ebe =   BCe ^((~BCi)&  BCo );
    1e40:	fffc4413          	not	s0,s8
    1e44:	fff4c393          	not	t2,s1
    1e48:	01747433          	and	s0,s0,s7
    1e4c:	0063f3b3          	and	t2,t2,t1
    1e50:	01644433          	xor	s0,s0,s6
    1e54:	04812c23          	sw	s0,88(sp)
    1e58:	0053c3b3          	xor	t2,t2,t0
    1e5c:	0a712423          	sw	t2,168(sp)
            Ebi =   BCi ^((~BCo)&  BCu );
    1e60:	fffbc413          	not	s0,s7
    1e64:	fff34393          	not	t2,t1
    1e68:	01f47433          	and	s0,s0,t6
    1e6c:	00c3f3b3          	and	t2,t2,a2
    1e70:	01844433          	xor	s0,s0,s8
    1e74:	0a812623          	sw	s0,172(sp)
    1e78:	0093c3b3          	xor	t2,t2,s1
    1e7c:	0a712823          	sw	t2,176(sp)
            Ebo =   BCo ^((~BCu)&  BCa );
    1e80:	ffffc413          	not	s0,t6
    1e84:	fff64393          	not	t2,a2
    1e88:	01447433          	and	s0,s0,s4
    1e8c:	0123f3b3          	and	t2,t2,s2
    1e90:	01744433          	xor	s0,s0,s7
    1e94:	0a812a23          	sw	s0,180(sp)
    1e98:	0063c333          	xor	t1,t2,t1
    1e9c:	0a612c23          	sw	t1,184(sp)
            Ebu =   BCu ^((~BCa)&  BCe );
    1ea0:	fffa4a13          	not	s4,s4
    1ea4:	fff94913          	not	s2,s2
    1ea8:	016a7a33          	and	s4,s4,s6
    1eac:	00597933          	and	s2,s2,t0
    1eb0:	01fa4333          	xor	t1,s4,t6
    1eb4:	0a612e23          	sw	t1,188(sp)
    1eb8:	00c94633          	xor	a2,s2,a2
    1ebc:	0cc12023          	sw	a2,192(sp)

            Abo ^= Do;
    1ec0:	01412603          	lw	a2,20(sp)
    1ec4:	00c54633          	xor	a2,a0,a2
    1ec8:	01812303          	lw	t1,24(sp)
    1ecc:	0066cfb3          	xor	t6,a3,t1
            BCa = ROL(Abo, 28);
    1ed0:	004fd313          	srli	t1,t6,0x4
    1ed4:	01c61293          	slli	t0,a2,0x1c
    1ed8:	00530333          	add	t1,t1,t0
    1edc:	00465613          	srli	a2,a2,0x4
    1ee0:	01cf9f93          	slli	t6,t6,0x1c
    1ee4:	01f60633          	add	a2,a2,t6
            Agu ^= Du;
    1ee8:	04012f83          	lw	t6,64(sp)
    1eec:	01f8cfb3          	xor	t6,a7,t6
    1ef0:	04412283          	lw	t0,68(sp)
    1ef4:	005742b3          	xor	t0,a4,t0
            BCe = ROL(Agu, 20);
    1ef8:	00c2d413          	srli	s0,t0,0xc
    1efc:	014f9393          	slli	t2,t6,0x14
    1f00:	00740433          	add	s0,s0,t2
    1f04:	00cfdf93          	srli	t6,t6,0xc
    1f08:	01429293          	slli	t0,t0,0x14
    1f0c:	005f8fb3          	add	t6,t6,t0
            Aka ^= Da;
    1f10:	04812283          	lw	t0,72(sp)
    1f14:	005843b3          	xor	t2,a6,t0
    1f18:	04c12283          	lw	t0,76(sp)
    1f1c:	005ec2b3          	xor	t0,t4,t0
            BCi = ROL(Aka,  3);
    1f20:	01d2d493          	srli	s1,t0,0x1d
    1f24:	00339913          	slli	s2,t2,0x3
    1f28:	012484b3          	add	s1,s1,s2
    1f2c:	01d3d393          	srli	t2,t2,0x1d
    1f30:	00329293          	slli	t0,t0,0x3
    1f34:	005383b3          	add	t2,t2,t0
            Ame ^= De;
    1f38:	0a412283          	lw	t0,164(sp)
    1f3c:	0055c2b3          	xor	t0,a1,t0
    1f40:	07412903          	lw	s2,116(sp)
    1f44:	012e4933          	xor	s2,t3,s2
            BCo = ROL(Ame, 45);
    1f48:	00d91a13          	slli	s4,s2,0xd
    1f4c:	0132db13          	srli	s6,t0,0x13
    1f50:	016a0a33          	add	s4,s4,s6
    1f54:	00d29293          	slli	t0,t0,0xd
    1f58:	01395913          	srli	s2,s2,0x13
    1f5c:	012282b3          	add	t0,t0,s2
            Asi ^= Di;
    1f60:	01a7cd33          	xor	s10,a5,s10
    1f64:	013f49b3          	xor	s3,t5,s3
            BCu = ROL(Asi, 61);
    1f68:	01d99913          	slli	s2,s3,0x1d
    1f6c:	003d5b13          	srli	s6,s10,0x3
    1f70:	01690933          	add	s2,s2,s6
    1f74:	01dd1d13          	slli	s10,s10,0x1d
    1f78:	0039d993          	srli	s3,s3,0x3
    1f7c:	013d0d33          	add	s10,s10,s3
            Ega =   BCa ^((~BCe)&  BCi );
    1f80:	fff44b13          	not	s6,s0
    1f84:	ffffc993          	not	s3,t6
    1f88:	009b7b33          	and	s6,s6,s1
    1f8c:	0079f9b3          	and	s3,s3,t2
    1f90:	006b4b33          	xor	s6,s6,t1
    1f94:	07612a23          	sw	s6,116(sp)
    1f98:	00c9c9b3          	xor	s3,s3,a2
    1f9c:	0b312223          	sw	s3,164(sp)
            Ege =   BCe ^((~BCi)&  BCo );
    1fa0:	fff4cb13          	not	s6,s1
    1fa4:	fff3c993          	not	s3,t2
    1fa8:	014b7b33          	and	s6,s6,s4
    1fac:	0059f9b3          	and	s3,s3,t0
    1fb0:	008b4b33          	xor	s6,s6,s0
    1fb4:	01612a23          	sw	s6,20(sp)
    1fb8:	01f9c9b3          	xor	s3,s3,t6
    1fbc:	01312c23          	sw	s3,24(sp)
            Egi =   BCi ^((~BCo)&  BCu );
    1fc0:	fffa4b13          	not	s6,s4
    1fc4:	fff2c993          	not	s3,t0
    1fc8:	012b7b33          	and	s6,s6,s2
    1fcc:	01a9f9b3          	and	s3,s3,s10
    1fd0:	009b44b3          	xor	s1,s6,s1
    1fd4:	04912423          	sw	s1,72(sp)
    1fd8:	0079c3b3          	xor	t2,s3,t2
    1fdc:	04712623          	sw	t2,76(sp)
            Ego =   BCo ^((~BCu)&  BCa );
    1fe0:	fff94493          	not	s1,s2
    1fe4:	fffd4393          	not	t2,s10
    1fe8:	0064f4b3          	and	s1,s1,t1
    1fec:	00c3f3b3          	and	t2,t2,a2
    1ff0:	0144c4b3          	xor	s1,s1,s4
    1ff4:	0c912223          	sw	s1,196(sp)
    1ff8:	0053c2b3          	xor	t0,t2,t0
    1ffc:	0c512423          	sw	t0,200(sp)
            Egu =   BCu ^((~BCa)&  BCe );
    2000:	fff34313          	not	t1,t1
    2004:	fff64613          	not	a2,a2
    2008:	00837333          	and	t1,t1,s0
    200c:	01f67633          	and	a2,a2,t6
    2010:	01234333          	xor	t1,t1,s2
    2014:	04612023          	sw	t1,64(sp)
    2018:	01a64633          	xor	a2,a2,s10
    201c:	04c12223          	sw	a2,68(sp)

            Abe ^= De;
    2020:	00412603          	lw	a2,4(sp)
    2024:	00c5c633          	xor	a2,a1,a2
    2028:	00812303          	lw	t1,8(sp)
    202c:	006e4fb3          	xor	t6,t3,t1
            BCa = ROL(Abe,  1);
    2030:	01ffd313          	srli	t1,t6,0x1f
    2034:	00161293          	slli	t0,a2,0x1
    2038:	00530333          	add	t1,t1,t0
    203c:	01f65613          	srli	a2,a2,0x1f
    2040:	001f9f93          	slli	t6,t6,0x1
    2044:	01f60633          	add	a2,a2,t6
            Agi ^= Di;
    2048:	03012f83          	lw	t6,48(sp)
    204c:	01f7cfb3          	xor	t6,a5,t6
    2050:	03412283          	lw	t0,52(sp)
    2054:	005f42b3          	xor	t0,t5,t0
            BCe = ROL(Agi,  6);
    2058:	01a2d913          	srli	s2,t0,0x1a
    205c:	006f9393          	slli	t2,t6,0x6
    2060:	00790933          	add	s2,s2,t2
    2064:	01afdf93          	srli	t6,t6,0x1a
    2068:	00629293          	slli	t0,t0,0x6
    206c:	005f8fb3          	add	t6,t6,t0
            Ako ^= Do;
    2070:	05c12283          	lw	t0,92(sp)
    2074:	005544b3          	xor	s1,a0,t0
    2078:	06012283          	lw	t0,96(sp)
    207c:	0056c2b3          	xor	t0,a3,t0
            BCi = ROL(Ako, 25);
    2080:	0072da13          	srli	s4,t0,0x7
    2084:	01949393          	slli	t2,s1,0x19
    2088:	007a0a33          	add	s4,s4,t2
    208c:	0074d493          	srli	s1,s1,0x7
    2090:	01929293          	slli	t0,t0,0x19
    2094:	005484b3          	add	s1,s1,t0
            Amu ^= Du;
    2098:	08012283          	lw	t0,128(sp)
    209c:	0058c3b3          	xor	t2,a7,t0
    20a0:	08412283          	lw	t0,132(sp)
    20a4:	005742b3          	xor	t0,a4,t0
            BCo = ROL(Amu,  8);
    20a8:	0182d993          	srli	s3,t0,0x18
    20ac:	00839413          	slli	s0,t2,0x8
    20b0:	008989b3          	add	s3,s3,s0
    20b4:	0183d393          	srli	t2,t2,0x18
    20b8:	00829293          	slli	t0,t0,0x8
    20bc:	005383b3          	add	t2,t2,t0
            Asa ^= Da;
    20c0:	08812283          	lw	t0,136(sp)
    20c4:	00584b33          	xor	s6,a6,t0
    20c8:	08c12283          	lw	t0,140(sp)
    20cc:	005ec2b3          	xor	t0,t4,t0
            BCu = ROL(Asa, 18);
    20d0:	00e2db93          	srli	s7,t0,0xe
    20d4:	012b1413          	slli	s0,s6,0x12
    20d8:	008b8bb3          	add	s7,s7,s0
    20dc:	00eb5b13          	srli	s6,s6,0xe
    20e0:	01229293          	slli	t0,t0,0x12
    20e4:	005b0b33          	add	s6,s6,t0
            Eka =   BCa ^((~BCe)&  BCi );
    20e8:	fff94413          	not	s0,s2
    20ec:	ffffc293          	not	t0,t6
    20f0:	01447433          	and	s0,s0,s4
    20f4:	0092f2b3          	and	t0,t0,s1
    20f8:	00644433          	xor	s0,s0,t1
    20fc:	02812823          	sw	s0,48(sp)
    2100:	00c2c2b3          	xor	t0,t0,a2
    2104:	02512a23          	sw	t0,52(sp)
            Eke =   BCe ^((~BCi)&  BCo );
    2108:	fffa4413          	not	s0,s4
    210c:	fff4c293          	not	t0,s1
    2110:	01347433          	and	s0,s0,s3
    2114:	0072f2b3          	and	t0,t0,t2
    2118:	01244433          	xor	s0,s0,s2
    211c:	08812023          	sw	s0,128(sp)
    2120:	01f2c2b3          	xor	t0,t0,t6
    2124:	08512223          	sw	t0,132(sp)
            Eki =   BCi ^((~BCo)&  BCu );
    2128:	fff9c293          	not	t0,s3
    212c:	fff3c413          	not	s0,t2
    2130:	0172f2b3          	and	t0,t0,s7
    2134:	01647433          	and	s0,s0,s6
    2138:	0142c2b3          	xor	t0,t0,s4
    213c:	00944433          	xor	s0,s0,s1
            Eko =   BCo ^((~BCu)&  BCa );
    2140:	fffbca13          	not	s4,s7
    2144:	fffb4493          	not	s1,s6
    2148:	006a7a33          	and	s4,s4,t1
    214c:	00c4f4b3          	and	s1,s1,a2
    2150:	013a49b3          	xor	s3,s4,s3
    2154:	05312e23          	sw	s3,92(sp)
    2158:	0074c3b3          	xor	t2,s1,t2
    215c:	06712023          	sw	t2,96(sp)
            Eku =   BCu ^((~BCa)&  BCe );
    2160:	fff34313          	not	t1,t1
    2164:	fff64613          	not	a2,a2
    2168:	01237333          	and	t1,t1,s2
    216c:	01f67633          	and	a2,a2,t6
    2170:	01734333          	xor	t1,t1,s7
    2174:	08612423          	sw	t1,136(sp)
    2178:	01664633          	xor	a2,a2,s6
    217c:	08c12623          	sw	a2,140(sp)

            Abu ^= Du;
    2180:	01c12603          	lw	a2,28(sp)
    2184:	00c8c633          	xor	a2,a7,a2
    2188:	02012303          	lw	t1,32(sp)
    218c:	00674fb3          	xor	t6,a4,t1
            BCa = ROL(Abu, 27);
    2190:	005fd313          	srli	t1,t6,0x5
    2194:	01b61393          	slli	t2,a2,0x1b
    2198:	00730333          	add	t1,t1,t2
    219c:	00565613          	srli	a2,a2,0x5
    21a0:	01bf9f93          	slli	t6,t6,0x1b
    21a4:	01f60633          	add	a2,a2,t6
            Aga ^= Da;
    21a8:	02412f83          	lw	t6,36(sp)
    21ac:	01f84933          	xor	s2,a6,t6
    21b0:	02812f83          	lw	t6,40(sp)
    21b4:	01fecfb3          	xor	t6,t4,t6
            BCe = ROL(Aga, 36);
    21b8:	004f9b13          	slli	s6,t6,0x4
    21bc:	01c95393          	srli	t2,s2,0x1c
    21c0:	007b0b33          	add	s6,s6,t2
    21c4:	00491913          	slli	s2,s2,0x4
    21c8:	01cfdf93          	srli	t6,t6,0x1c
    21cc:	01f90933          	add	s2,s2,t6
            Ake ^= De;
    21d0:	05012f83          	lw	t6,80(sp)
    21d4:	01f5cfb3          	xor	t6,a1,t6
    21d8:	05412383          	lw	t2,84(sp)
    21dc:	007e44b3          	xor	s1,t3,t2
            BCi = ROL(Ake, 10);
    21e0:	0164d393          	srli	t2,s1,0x16
    21e4:	00af9993          	slli	s3,t6,0xa
    21e8:	013383b3          	add	t2,t2,s3
    21ec:	016fdf93          	srli	t6,t6,0x16
    21f0:	00a49493          	slli	s1,s1,0xa
    21f4:	009f8fb3          	add	t6,t6,s1
            Ami ^= Di;
    21f8:	07812483          	lw	s1,120(sp)
    21fc:	0097c9b3          	xor	s3,a5,s1
    2200:	07c12483          	lw	s1,124(sp)
    2204:	009f44b3          	xor	s1,t5,s1
            BCo = ROL(Ami, 15);
    2208:	0114db93          	srli	s7,s1,0x11
    220c:	00f99a13          	slli	s4,s3,0xf
    2210:	014b8bb3          	add	s7,s7,s4
    2214:	0119d993          	srli	s3,s3,0x11
    2218:	00f49493          	slli	s1,s1,0xf
    221c:	009989b3          	add	s3,s3,s1
            Aso ^= Do;
    2220:	09812483          	lw	s1,152(sp)
    2224:	009544b3          	xor	s1,a0,s1
    2228:	09c12a03          	lw	s4,156(sp)
    222c:	0146cc33          	xor	s8,a3,s4
            BCu = ROL(Aso, 56);
    2230:	018c1a13          	slli	s4,s8,0x18
    2234:	0084dc93          	srli	s9,s1,0x8
    2238:	019a0a33          	add	s4,s4,s9
    223c:	01849493          	slli	s1,s1,0x18
    2240:	008c5c13          	srli	s8,s8,0x8
    2244:	018484b3          	add	s1,s1,s8
            Ema =   BCa ^((~BCe)&  BCi );
    2248:	fffb4c93          	not	s9,s6
    224c:	fff94c13          	not	s8,s2
    2250:	007cfcb3          	and	s9,s9,t2
    2254:	01fc7c33          	and	s8,s8,t6
    2258:	006cccb3          	xor	s9,s9,t1
    225c:	09912c23          	sw	s9,152(sp)
    2260:	00cc4c33          	xor	s8,s8,a2
    2264:	09812e23          	sw	s8,156(sp)
            Eme =   BCe ^((~BCi)&  BCo );
    2268:	fff3cc93          	not	s9,t2
    226c:	ffffcc13          	not	s8,t6
    2270:	017cfcb3          	and	s9,s9,s7
    2274:	013c7c33          	and	s8,s8,s3
    2278:	016cccb3          	xor	s9,s9,s6
    227c:	03912223          	sw	s9,36(sp)
    2280:	012c4c33          	xor	s8,s8,s2
    2284:	03812423          	sw	s8,40(sp)
            Emi =   BCi ^((~BCo)&  BCu );
    2288:	fffbcc93          	not	s9,s7
    228c:	fff9cc13          	not	s8,s3
    2290:	014cfcb3          	and	s9,s9,s4
    2294:	009c7c33          	and	s8,s8,s1
    2298:	007cc3b3          	xor	t2,s9,t2
    229c:	06712c23          	sw	t2,120(sp)
    22a0:	01fc4fb3          	xor	t6,s8,t6
    22a4:	07f12e23          	sw	t6,124(sp)
            Emo =   BCo ^((~BCu)&  BCa );
    22a8:	fffa4f93          	not	t6,s4
    22ac:	fff4c393          	not	t2,s1
    22b0:	006fffb3          	and	t6,t6,t1
    22b4:	00c3f3b3          	and	t2,t2,a2
    22b8:	017fcfb3          	xor	t6,t6,s7
    22bc:	0133c3b3          	xor	t2,t2,s3
            Emu =   BCu ^((~BCa)&  BCe );
    22c0:	fff34313          	not	t1,t1
    22c4:	fff64613          	not	a2,a2
    22c8:	01637333          	and	t1,t1,s6
    22cc:	01267633          	and	a2,a2,s2
    22d0:	01434333          	xor	t1,t1,s4
    22d4:	04612823          	sw	t1,80(sp)
    22d8:	00964633          	xor	a2,a2,s1
    22dc:	04c12a23          	sw	a2,84(sp)

            Abi ^= Di;
    22e0:	00c12603          	lw	a2,12(sp)
    22e4:	00c7c7b3          	xor	a5,a5,a2
    22e8:	01012603          	lw	a2,16(sp)
    22ec:	00cf4f33          	xor	t5,t5,a2
            BCa = ROL(Abi, 62);
    22f0:	01ef1613          	slli	a2,t5,0x1e
    22f4:	0027d313          	srli	t1,a5,0x2
    22f8:	00660633          	add	a2,a2,t1
    22fc:	01e79793          	slli	a5,a5,0x1e
    2300:	002f5f13          	srli	t5,t5,0x2
    2304:	01e787b3          	add	a5,a5,t5
            Ago ^= Do;
    2308:	03812303          	lw	t1,56(sp)
    230c:	00654533          	xor	a0,a0,t1
    2310:	03c12303          	lw	t1,60(sp)
    2314:	0066c6b3          	xor	a3,a3,t1
            BCe = ROL(Ago, 55);
    2318:	01769f13          	slli	t5,a3,0x17
    231c:	00955313          	srli	t1,a0,0x9
    2320:	006f0f33          	add	t5,t5,t1
    2324:	01751513          	slli	a0,a0,0x17
    2328:	0096d693          	srli	a3,a3,0x9
    232c:	00d50533          	add	a0,a0,a3
            Aku ^= Du;
    2330:	06412683          	lw	a3,100(sp)
    2334:	00d8c8b3          	xor	a7,a7,a3
    2338:	06812683          	lw	a3,104(sp)
    233c:	00d74733          	xor	a4,a4,a3
            BCi = ROL(Aku, 39);
    2340:	00771993          	slli	s3,a4,0x7
    2344:	0198d693          	srli	a3,a7,0x19
    2348:	00d989b3          	add	s3,s3,a3
    234c:	00789893          	slli	a7,a7,0x7
    2350:	01975713          	srli	a4,a4,0x19
    2354:	00e888b3          	add	a7,a7,a4
            Ama ^= Da;
    2358:	06c12703          	lw	a4,108(sp)
    235c:	00e84833          	xor	a6,a6,a4
    2360:	07012703          	lw	a4,112(sp)
    2364:	00eeceb3          	xor	t4,t4,a4
            BCo = ROL(Ama, 41);
    2368:	009e9493          	slli	s1,t4,0x9
    236c:	01785713          	srli	a4,a6,0x17
    2370:	00e484b3          	add	s1,s1,a4
    2374:	00981813          	slli	a6,a6,0x9
    2378:	017ede93          	srli	t4,t4,0x17
    237c:	01d80833          	add	a6,a6,t4
            Ase ^= De;
    2380:	09012703          	lw	a4,144(sp)
    2384:	00e5c5b3          	xor	a1,a1,a4
    2388:	09412703          	lw	a4,148(sp)
    238c:	00ee4e33          	xor	t3,t3,a4
            BCu = ROL(Ase,  2);
    2390:	01ee5693          	srli	a3,t3,0x1e
    2394:	00259713          	slli	a4,a1,0x2
    2398:	00e686b3          	add	a3,a3,a4
    239c:	01e5d593          	srli	a1,a1,0x1e
    23a0:	002e1e13          	slli	t3,t3,0x2
    23a4:	01c58733          	add	a4,a1,t3
            Esa =   BCa ^((~BCe)&  BCi );
    23a8:	ffff4313          	not	t1,t5
    23ac:	fff54593          	not	a1,a0
    23b0:	01337333          	and	t1,t1,s3
    23b4:	0115f5b3          	and	a1,a1,a7
    23b8:	00c34333          	xor	t1,t1,a2
    23bc:	06612223          	sw	t1,100(sp)
    23c0:	00f5c5b3          	xor	a1,a1,a5
    23c4:	06b12423          	sw	a1,104(sp)
            Ese =   BCe ^((~BCi)&  BCo );
    23c8:	fff9c313          	not	t1,s3
    23cc:	fff8c593          	not	a1,a7
    23d0:	00937333          	and	t1,t1,s1
    23d4:	0105f5b3          	and	a1,a1,a6
    23d8:	01e34333          	xor	t1,t1,t5
    23dc:	08612823          	sw	t1,144(sp)
    23e0:	00a5c5b3          	xor	a1,a1,a0
    23e4:	08b12a23          	sw	a1,148(sp)
            Esi =   BCi ^((~BCo)&  BCu );
    23e8:	fff4c313          	not	t1,s1
    23ec:	fff84913          	not	s2,a6
    23f0:	00d37333          	and	t1,t1,a3
    23f4:	00e97933          	and	s2,s2,a4
    23f8:	01334333          	xor	t1,t1,s3
    23fc:	01194933          	xor	s2,s2,a7
            Eso =   BCo ^((~BCu)&  BCa );
    2400:	fff6c893          	not	a7,a3
    2404:	fff74593          	not	a1,a4
    2408:	00c8f8b3          	and	a7,a7,a2
    240c:	00f5f5b3          	and	a1,a1,a5
    2410:	0098c8b3          	xor	a7,a7,s1
    2414:	07112623          	sw	a7,108(sp)
    2418:	0105c5b3          	xor	a1,a1,a6
    241c:	06b12823          	sw	a1,112(sp)
            Esu =   BCu ^((~BCa)&  BCe );
    2420:	fff64613          	not	a2,a2
    2424:	fff7c793          	not	a5,a5
    2428:	01e67633          	and	a2,a2,t5
    242c:	00a7f7b3          	and	a5,a5,a0
    2430:	00d64633          	xor	a2,a2,a3
    2434:	00e7c5b3          	xor	a1,a5,a4

            //    prepareTheta
            BCa = Eba^Ega^Eka^Ema^Esa;
    2438:	07412783          	lw	a5,116(sp)
    243c:	00fdc9b3          	xor	s3,s11,a5
    2440:	02c12783          	lw	a5,44(sp)
    2444:	0a412703          	lw	a4,164(sp)
    2448:	00e7c733          	xor	a4,a5,a4
    244c:	03012783          	lw	a5,48(sp)
    2450:	00f9c9b3          	xor	s3,s3,a5
    2454:	03412783          	lw	a5,52(sp)
    2458:	00f74733          	xor	a4,a4,a5
    245c:	09812783          	lw	a5,152(sp)
    2460:	00f9c9b3          	xor	s3,s3,a5
    2464:	09c12783          	lw	a5,156(sp)
    2468:	00f74733          	xor	a4,a4,a5
    246c:	06412783          	lw	a5,100(sp)
    2470:	00f9c9b3          	xor	s3,s3,a5
    2474:	06812783          	lw	a5,104(sp)
    2478:	00f74733          	xor	a4,a4,a5
            BCe = Ebe^Ege^Eke^Eme^Ese;
    247c:	05812783          	lw	a5,88(sp)
    2480:	01412683          	lw	a3,20(sp)
    2484:	00d7ccb3          	xor	s9,a5,a3
    2488:	0a812783          	lw	a5,168(sp)
    248c:	01812683          	lw	a3,24(sp)
    2490:	00d7c833          	xor	a6,a5,a3
    2494:	08012783          	lw	a5,128(sp)
    2498:	00fcccb3          	xor	s9,s9,a5
    249c:	08412783          	lw	a5,132(sp)
    24a0:	00f84833          	xor	a6,a6,a5
    24a4:	02412783          	lw	a5,36(sp)
    24a8:	00fcccb3          	xor	s9,s9,a5
    24ac:	02812783          	lw	a5,40(sp)
    24b0:	00f84833          	xor	a6,a6,a5
    24b4:	09012783          	lw	a5,144(sp)
    24b8:	00fcccb3          	xor	s9,s9,a5
    24bc:	09412783          	lw	a5,148(sp)
    24c0:	00f84833          	xor	a6,a6,a5
            BCi = Ebi^Egi^Eki^Emi^Esi;
    24c4:	0ac12783          	lw	a5,172(sp)
    24c8:	04812683          	lw	a3,72(sp)
    24cc:	00d7cc33          	xor	s8,a5,a3
    24d0:	0b012783          	lw	a5,176(sp)
    24d4:	04c12683          	lw	a3,76(sp)
    24d8:	00d7cbb3          	xor	s7,a5,a3
    24dc:	005c4c33          	xor	s8,s8,t0
    24e0:	008bcbb3          	xor	s7,s7,s0
    24e4:	07812783          	lw	a5,120(sp)
    24e8:	00fc4c33          	xor	s8,s8,a5
    24ec:	07c12783          	lw	a5,124(sp)
    24f0:	00fbcbb3          	xor	s7,s7,a5
    24f4:	006c4c33          	xor	s8,s8,t1
    24f8:	012bcbb3          	xor	s7,s7,s2
            BCo = Ebo^Ego^Eko^Emo^Eso;
    24fc:	0b412783          	lw	a5,180(sp)
    2500:	0c412683          	lw	a3,196(sp)
    2504:	00d7cb33          	xor	s6,a5,a3
    2508:	0b812783          	lw	a5,184(sp)
    250c:	0c812683          	lw	a3,200(sp)
    2510:	00d7ca33          	xor	s4,a5,a3
    2514:	05c12783          	lw	a5,92(sp)
    2518:	00fb4b33          	xor	s6,s6,a5
    251c:	06012783          	lw	a5,96(sp)
    2520:	00fa4a33          	xor	s4,s4,a5
    2524:	01fb4b33          	xor	s6,s6,t6
    2528:	007a4a33          	xor	s4,s4,t2
    252c:	011b4b33          	xor	s6,s6,a7
    2530:	07012783          	lw	a5,112(sp)
    2534:	00fa4a33          	xor	s4,s4,a5
            BCu = Ebu^Egu^Eku^Emu^Esu;
    2538:	04012783          	lw	a5,64(sp)
    253c:	08812683          	lw	a3,136(sp)
    2540:	00d7ce33          	xor	t3,a5,a3
    2544:	04412783          	lw	a5,68(sp)
    2548:	08c12683          	lw	a3,140(sp)
    254c:	00d7c6b3          	xor	a3,a5,a3
    2550:	0bc12783          	lw	a5,188(sp)
    2554:	00fe4e33          	xor	t3,t3,a5
    2558:	0c012783          	lw	a5,192(sp)
    255c:	00f6c6b3          	xor	a3,a3,a5
    2560:	05012783          	lw	a5,80(sp)
    2564:	00fe4e33          	xor	t3,t3,a5
    2568:	05412783          	lw	a5,84(sp)
    256c:	00f6c6b3          	xor	a3,a3,a5
    2570:	00ce4e33          	xor	t3,t3,a2
    2574:	00b6c6b3          	xor	a3,a3,a1

            //thetaRhoPiChiIotaPrepareTheta(round+1, E, A)
            Da = BCu^ROL(BCe, 1);
    2578:	01f85893          	srli	a7,a6,0x1f
    257c:	001c9793          	slli	a5,s9,0x1
    2580:	00f888b3          	add	a7,a7,a5
    2584:	01fcd793          	srli	a5,s9,0x1f
    2588:	00181f13          	slli	t5,a6,0x1
    258c:	01e78f33          	add	t5,a5,t5
    2590:	01c8c8b3          	xor	a7,a7,t3
    2594:	00df4f33          	xor	t5,t5,a3
            De = BCa^ROL(BCi, 1);
    2598:	01fbd513          	srli	a0,s7,0x1f
    259c:	001c1793          	slli	a5,s8,0x1
    25a0:	00f50533          	add	a0,a0,a5
    25a4:	01fc5793          	srli	a5,s8,0x1f
    25a8:	001b9e93          	slli	t4,s7,0x1
    25ac:	01d78eb3          	add	t4,a5,t4
    25b0:	01354533          	xor	a0,a0,s3
    25b4:	00eeceb3          	xor	t4,t4,a4
            Di = BCe^ROL(BCo, 1);
    25b8:	01fa5793          	srli	a5,s4,0x1f
    25bc:	001b1493          	slli	s1,s6,0x1
    25c0:	009787b3          	add	a5,a5,s1
    25c4:	01fb5d13          	srli	s10,s6,0x1f
    25c8:	001a1493          	slli	s1,s4,0x1
    25cc:	009d04b3          	add	s1,s10,s1
    25d0:	0197c7b3          	xor	a5,a5,s9
    25d4:	0104c4b3          	xor	s1,s1,a6
            Do = BCi^ROL(BCu, 1);
    25d8:	01f6dc93          	srli	s9,a3,0x1f
    25dc:	001e1813          	slli	a6,t3,0x1
    25e0:	010c8833          	add	a6,s9,a6
    25e4:	01fe5e13          	srli	t3,t3,0x1f
    25e8:	00169693          	slli	a3,a3,0x1
    25ec:	00de06b3          	add	a3,t3,a3
    25f0:	01884833          	xor	a6,a6,s8
    25f4:	0176c6b3          	xor	a3,a3,s7
            Du = BCo^ROL(BCa, 1);
    25f8:	01f75b93          	srli	s7,a4,0x1f
    25fc:	00199e13          	slli	t3,s3,0x1
    2600:	01cb8e33          	add	t3,s7,t3
    2604:	01f9d993          	srli	s3,s3,0x1f
    2608:	00171713          	slli	a4,a4,0x1
    260c:	00e98733          	add	a4,s3,a4
    2610:	016e4e33          	xor	t3,t3,s6
    2614:	01474733          	xor	a4,a4,s4

            Eba ^= Da;
    2618:	011dcb33          	xor	s6,s11,a7
    261c:	02c12983          	lw	s3,44(sp)
    2620:	01e9ca33          	xor	s4,s3,t5
            BCa = Eba;
            Ege ^= De;
    2624:	01412983          	lw	s3,20(sp)
    2628:	00a9c9b3          	xor	s3,s3,a0
    262c:	01812b83          	lw	s7,24(sp)
    2630:	01dbcc33          	xor	s8,s7,t4
            BCe = ROL(Ege, 44);
    2634:	00cc1b93          	slli	s7,s8,0xc
    2638:	0149dc93          	srli	s9,s3,0x14
    263c:	019b8bb3          	add	s7,s7,s9
    2640:	00c99993          	slli	s3,s3,0xc
    2644:	014c5c13          	srli	s8,s8,0x14
    2648:	018989b3          	add	s3,s3,s8
            Eki ^= Di;
    264c:	00f2c2b3          	xor	t0,t0,a5
    2650:	00944433          	xor	s0,s0,s1
            BCi = ROL(Eki, 43);
    2654:	00b41c13          	slli	s8,s0,0xb
    2658:	0152dc93          	srli	s9,t0,0x15
    265c:	019c0c33          	add	s8,s8,s9
    2660:	00b29293          	slli	t0,t0,0xb
    2664:	01545413          	srli	s0,s0,0x15
    2668:	008282b3          	add	t0,t0,s0
            Emo ^= Do;
    266c:	010fcfb3          	xor	t6,t6,a6
    2670:	00d3c3b3          	xor	t2,t2,a3
            BCo = ROL(Emo, 21);
    2674:	00b3d413          	srli	s0,t2,0xb
    2678:	015f9c93          	slli	s9,t6,0x15
    267c:	01940433          	add	s0,s0,s9
    2680:	00bfdf93          	srli	t6,t6,0xb
    2684:	01539393          	slli	t2,t2,0x15
    2688:	007f8fb3          	add	t6,t6,t2
            Esu ^= Du;
    268c:	01c64633          	xor	a2,a2,t3
    2690:	00e5c5b3          	xor	a1,a1,a4
            BCu = ROL(Esu, 14);
    2694:	0125d393          	srli	t2,a1,0x12
    2698:	00e61c93          	slli	s9,a2,0xe
    269c:	019383b3          	add	t2,t2,s9
    26a0:	01265613          	srli	a2,a2,0x12
    26a4:	00e59593          	slli	a1,a1,0xe
    26a8:	00b60633          	add	a2,a2,a1
            Aba =   BCa ^((~BCe)&  BCi );
            Aba ^= (uint64_t)KeccakF_RoundConstants[round+1];
    26ac:	008aad83          	lw	s11,8(s5)
    26b0:	016dcdb3          	xor	s11,s11,s6
    26b4:	00caac83          	lw	s9,12(s5)
    26b8:	014cccb3          	xor	s9,s9,s4
            Aba =   BCa ^((~BCe)&  BCi );
    26bc:	fffbcd13          	not	s10,s7
    26c0:	fff9c593          	not	a1,s3
    26c4:	018d7d33          	and	s10,s10,s8
    26c8:	0055f5b3          	and	a1,a1,t0
            Aba ^= (uint64_t)KeccakF_RoundConstants[round+1];
    26cc:	01adcdb3          	xor	s11,s11,s10
    26d0:	00bcc5b3          	xor	a1,s9,a1
    26d4:	0ab12023          	sw	a1,160(sp)
            Abe =   BCe ^((~BCi)&  BCo );
    26d8:	fffc4c93          	not	s9,s8
    26dc:	fff2c593          	not	a1,t0
    26e0:	008cfcb3          	and	s9,s9,s0
    26e4:	01f5f5b3          	and	a1,a1,t6
    26e8:	017cccb3          	xor	s9,s9,s7
    26ec:	01912223          	sw	s9,4(sp)
    26f0:	0135c5b3          	xor	a1,a1,s3
    26f4:	00b12423          	sw	a1,8(sp)
            Abi =   BCi ^((~BCo)&  BCu );
    26f8:	fff44c93          	not	s9,s0
    26fc:	ffffc593          	not	a1,t6
    2700:	007cfcb3          	and	s9,s9,t2
    2704:	00c5f5b3          	and	a1,a1,a2
    2708:	018ccc33          	xor	s8,s9,s8
    270c:	01812623          	sw	s8,12(sp)
    2710:	0055c5b3          	xor	a1,a1,t0
    2714:	00b12823          	sw	a1,16(sp)
            Abo =   BCo ^((~BCu)&  BCa );
    2718:	fff3c293          	not	t0,t2
    271c:	fff64593          	not	a1,a2
    2720:	0162f2b3          	and	t0,t0,s6
    2724:	0145f5b3          	and	a1,a1,s4
    2728:	0082c2b3          	xor	t0,t0,s0
    272c:	00512a23          	sw	t0,20(sp)
    2730:	01f5c5b3          	xor	a1,a1,t6
    2734:	00b12c23          	sw	a1,24(sp)
            Abu =   BCu ^((~BCa)&  BCe );
    2738:	fffb4b13          	not	s6,s6
    273c:	fffa4a13          	not	s4,s4
    2740:	017b7b33          	and	s6,s6,s7
    2744:	013a7a33          	and	s4,s4,s3
    2748:	007b45b3          	xor	a1,s6,t2
    274c:	00b12e23          	sw	a1,28(sp)
    2750:	00ca4633          	xor	a2,s4,a2
    2754:	02c12023          	sw	a2,32(sp)

            Ebo ^= Do;
    2758:	0b412603          	lw	a2,180(sp)
    275c:	01064633          	xor	a2,a2,a6
    2760:	0b812583          	lw	a1,184(sp)
    2764:	00d5cfb3          	xor	t6,a1,a3
            BCa = ROL(Ebo, 28);
    2768:	004fd593          	srli	a1,t6,0x4
    276c:	01c61293          	slli	t0,a2,0x1c
    2770:	005585b3          	add	a1,a1,t0
    2774:	00465613          	srli	a2,a2,0x4
    2778:	01cf9f93          	slli	t6,t6,0x1c
    277c:	01f60633          	add	a2,a2,t6
            Egu ^= Du;
    2780:	04012f83          	lw	t6,64(sp)
    2784:	01cfcfb3          	xor	t6,t6,t3
    2788:	04412283          	lw	t0,68(sp)
    278c:	00e2c2b3          	xor	t0,t0,a4
            BCe = ROL(Egu, 20);
    2790:	00c2d413          	srli	s0,t0,0xc
    2794:	014f9393          	slli	t2,t6,0x14
    2798:	00740433          	add	s0,s0,t2
    279c:	00cfdf93          	srli	t6,t6,0xc
    27a0:	01429293          	slli	t0,t0,0x14
    27a4:	005f8fb3          	add	t6,t6,t0
            Eka ^= Da;
    27a8:	03012283          	lw	t0,48(sp)
    27ac:	0112c3b3          	xor	t2,t0,a7
    27b0:	03412283          	lw	t0,52(sp)
    27b4:	01e2c2b3          	xor	t0,t0,t5
            BCi = ROL(Eka, 3);
    27b8:	01d2d993          	srli	s3,t0,0x1d
    27bc:	00339a13          	slli	s4,t2,0x3
    27c0:	014989b3          	add	s3,s3,s4
    27c4:	01d3d393          	srli	t2,t2,0x1d
    27c8:	00329293          	slli	t0,t0,0x3
    27cc:	005383b3          	add	t2,t2,t0
            Eme ^= De;
    27d0:	02412283          	lw	t0,36(sp)
    27d4:	00a2c2b3          	xor	t0,t0,a0
    27d8:	02812a03          	lw	s4,40(sp)
    27dc:	01da4a33          	xor	s4,s4,t4
            BCo = ROL(Eme, 45);
    27e0:	00da1b13          	slli	s6,s4,0xd
    27e4:	0132db93          	srli	s7,t0,0x13
    27e8:	017b0b33          	add	s6,s6,s7
    27ec:	00d29293          	slli	t0,t0,0xd
    27f0:	013a5a13          	srli	s4,s4,0x13
    27f4:	014282b3          	add	t0,t0,s4
            Esi ^= Di;
    27f8:	00f34333          	xor	t1,t1,a5
    27fc:	00994933          	xor	s2,s2,s1
            BCu = ROL(Esi, 61);
    2800:	01d91a13          	slli	s4,s2,0x1d
    2804:	00335b93          	srli	s7,t1,0x3
    2808:	017a0a33          	add	s4,s4,s7
    280c:	01d31313          	slli	t1,t1,0x1d
    2810:	00395913          	srli	s2,s2,0x3
    2814:	01230333          	add	t1,t1,s2
            Aga =   BCa ^((~BCe)&  BCi );
    2818:	fff44b93          	not	s7,s0
    281c:	ffffc913          	not	s2,t6
    2820:	013bfbb3          	and	s7,s7,s3
    2824:	00797933          	and	s2,s2,t2
    2828:	00bbcbb3          	xor	s7,s7,a1
    282c:	03712223          	sw	s7,36(sp)
    2830:	00c94933          	xor	s2,s2,a2
    2834:	03212423          	sw	s2,40(sp)
            Age =   BCe ^((~BCi)&  BCo );
    2838:	fff9cb93          	not	s7,s3
    283c:	fff3c913          	not	s2,t2
    2840:	016bfbb3          	and	s7,s7,s6
    2844:	00597933          	and	s2,s2,t0
    2848:	008bccb3          	xor	s9,s7,s0
    284c:	01f94933          	xor	s2,s2,t6
    2850:	03212623          	sw	s2,44(sp)
            Agi =   BCi ^((~BCo)&  BCu );
    2854:	fffb4b93          	not	s7,s6
    2858:	fff2c913          	not	s2,t0
    285c:	014bfbb3          	and	s7,s7,s4
    2860:	00697933          	and	s2,s2,t1
    2864:	013bc9b3          	xor	s3,s7,s3
    2868:	03312823          	sw	s3,48(sp)
    286c:	007943b3          	xor	t2,s2,t2
    2870:	02712a23          	sw	t2,52(sp)
            Ago =   BCo ^((~BCu)&  BCa );
    2874:	fffa4913          	not	s2,s4
    2878:	fff34393          	not	t2,t1
    287c:	00b97933          	and	s2,s2,a1
    2880:	00c3f3b3          	and	t2,t2,a2
    2884:	01694933          	xor	s2,s2,s6
    2888:	03212c23          	sw	s2,56(sp)
    288c:	0053c2b3          	xor	t0,t2,t0
    2890:	02512e23          	sw	t0,60(sp)
            Agu =   BCu ^((~BCa)&  BCe );
    2894:	fff5c593          	not	a1,a1
    2898:	fff64613          	not	a2,a2
    289c:	0085f5b3          	and	a1,a1,s0
    28a0:	01f67633          	and	a2,a2,t6
    28a4:	0145c5b3          	xor	a1,a1,s4
    28a8:	04b12023          	sw	a1,64(sp)
    28ac:	00664633          	xor	a2,a2,t1
    28b0:	04c12223          	sw	a2,68(sp)

            Ebe ^= De;
    28b4:	05812603          	lw	a2,88(sp)
    28b8:	00a64633          	xor	a2,a2,a0
    28bc:	0a812583          	lw	a1,168(sp)
    28c0:	01d5c333          	xor	t1,a1,t4
            BCa = ROL(Ebe, 1);
    28c4:	01f35593          	srli	a1,t1,0x1f
    28c8:	00161f93          	slli	t6,a2,0x1
    28cc:	01f585b3          	add	a1,a1,t6
    28d0:	01f65613          	srli	a2,a2,0x1f
    28d4:	00131313          	slli	t1,t1,0x1
    28d8:	00660633          	add	a2,a2,t1
            Egi ^= Di;
    28dc:	04812303          	lw	t1,72(sp)
    28e0:	00f34333          	xor	t1,t1,a5
    28e4:	04c12f83          	lw	t6,76(sp)
    28e8:	009fcfb3          	xor	t6,t6,s1
            BCe = ROL(Egi, 6);
    28ec:	01afd393          	srli	t2,t6,0x1a
    28f0:	00631293          	slli	t0,t1,0x6
    28f4:	005383b3          	add	t2,t2,t0
    28f8:	01a35313          	srli	t1,t1,0x1a
    28fc:	006f9f93          	slli	t6,t6,0x6
    2900:	01f30333          	add	t1,t1,t6
            Eko ^= Do;
    2904:	05c12f83          	lw	t6,92(sp)
    2908:	010fc2b3          	xor	t0,t6,a6
    290c:	06012f83          	lw	t6,96(sp)
    2910:	00dfcfb3          	xor	t6,t6,a3
            BCi = ROL(Eko, 25);
    2914:	007fd913          	srli	s2,t6,0x7
    2918:	01929413          	slli	s0,t0,0x19
    291c:	00890933          	add	s2,s2,s0
    2920:	0072d293          	srli	t0,t0,0x7
    2924:	019f9f93          	slli	t6,t6,0x19
    2928:	01f282b3          	add	t0,t0,t6
            Emu ^= Du;
    292c:	05012f83          	lw	t6,80(sp)
    2930:	01cfcfb3          	xor	t6,t6,t3
    2934:	05412403          	lw	s0,84(sp)
    2938:	00e449b3          	xor	s3,s0,a4
            BCo = ROL(Emu, 8);
    293c:	0189d413          	srli	s0,s3,0x18
    2940:	008f9a13          	slli	s4,t6,0x8
    2944:	01440433          	add	s0,s0,s4
    2948:	018fdf93          	srli	t6,t6,0x18
    294c:	00899993          	slli	s3,s3,0x8
    2950:	013f8fb3          	add	t6,t6,s3
            Esa ^= Da;
    2954:	06412983          	lw	s3,100(sp)
    2958:	0119c9b3          	xor	s3,s3,a7
    295c:	06812a03          	lw	s4,104(sp)
    2960:	01ea4b33          	xor	s6,s4,t5
            BCu = ROL(Esa, 18);
    2964:	00eb5a13          	srli	s4,s6,0xe
    2968:	01299b93          	slli	s7,s3,0x12
    296c:	017a0a33          	add	s4,s4,s7
    2970:	00e9d993          	srli	s3,s3,0xe
    2974:	012b1b13          	slli	s6,s6,0x12
    2978:	016989b3          	add	s3,s3,s6
            Aka =   BCa ^((~BCe)&  BCi );
    297c:	fff3cb93          	not	s7,t2
    2980:	fff34b13          	not	s6,t1
    2984:	012bfbb3          	and	s7,s7,s2
    2988:	005b7b33          	and	s6,s6,t0
    298c:	00bbcbb3          	xor	s7,s7,a1
    2990:	05712423          	sw	s7,72(sp)
    2994:	00cb4b33          	xor	s6,s6,a2
    2998:	05612623          	sw	s6,76(sp)
            Ake =   BCe ^((~BCi)&  BCo );
    299c:	fff94b93          	not	s7,s2
    29a0:	fff2cb13          	not	s6,t0
    29a4:	008bfbb3          	and	s7,s7,s0
    29a8:	01fb7b33          	and	s6,s6,t6
    29ac:	007bcbb3          	xor	s7,s7,t2
    29b0:	05712823          	sw	s7,80(sp)
    29b4:	006b4b33          	xor	s6,s6,t1
    29b8:	05612a23          	sw	s6,84(sp)
            Aki =   BCi ^((~BCo)&  BCu );
    29bc:	fff44b93          	not	s7,s0
    29c0:	ffffcb13          	not	s6,t6
    29c4:	014bfbb3          	and	s7,s7,s4
    29c8:	013b7b33          	and	s6,s6,s3
    29cc:	012bcbb3          	xor	s7,s7,s2
    29d0:	005b42b3          	xor	t0,s6,t0
    29d4:	04512c23          	sw	t0,88(sp)
            Ako =   BCo ^((~BCu)&  BCa );
    29d8:	fffa4913          	not	s2,s4
    29dc:	fff9c293          	not	t0,s3
    29e0:	00b97933          	and	s2,s2,a1
    29e4:	00c2f2b3          	and	t0,t0,a2
    29e8:	00894433          	xor	s0,s2,s0
    29ec:	04812e23          	sw	s0,92(sp)
    29f0:	01f2cfb3          	xor	t6,t0,t6
    29f4:	07f12023          	sw	t6,96(sp)
            Aku =   BCu ^((~BCa)&  BCe );
    29f8:	fff5c593          	not	a1,a1
    29fc:	fff64613          	not	a2,a2
    2a00:	0075f5b3          	and	a1,a1,t2
    2a04:	00667633          	and	a2,a2,t1
    2a08:	0145c5b3          	xor	a1,a1,s4
    2a0c:	06b12223          	sw	a1,100(sp)
    2a10:	01364633          	xor	a2,a2,s3
    2a14:	06c12423          	sw	a2,104(sp)

            Ebu ^= Du;
    2a18:	0bc12603          	lw	a2,188(sp)
    2a1c:	01c64633          	xor	a2,a2,t3
    2a20:	0c012583          	lw	a1,192(sp)
    2a24:	00e5c333          	xor	t1,a1,a4
            BCa = ROL(Ebu, 27);
    2a28:	00535593          	srli	a1,t1,0x5
    2a2c:	01b61f93          	slli	t6,a2,0x1b
    2a30:	01f585b3          	add	a1,a1,t6
    2a34:	00565613          	srli	a2,a2,0x5
    2a38:	01b31313          	slli	t1,t1,0x1b
    2a3c:	00660633          	add	a2,a2,t1
            Ega ^= Da;
    2a40:	07412303          	lw	t1,116(sp)
    2a44:	01134433          	xor	s0,t1,a7
    2a48:	0a412303          	lw	t1,164(sp)
    2a4c:	01e34333          	xor	t1,t1,t5
            BCe = ROL(Ega, 36);
    2a50:	00431a13          	slli	s4,t1,0x4
    2a54:	01c45f93          	srli	t6,s0,0x1c
    2a58:	01fa0a33          	add	s4,s4,t6
    2a5c:	00441413          	slli	s0,s0,0x4
    2a60:	01c35313          	srli	t1,t1,0x1c
    2a64:	00640433          	add	s0,s0,t1
            Eke ^= De;
    2a68:	08012303          	lw	t1,128(sp)
    2a6c:	00a34333          	xor	t1,t1,a0
    2a70:	08412f83          	lw	t6,132(sp)
    2a74:	01dfc2b3          	xor	t0,t6,t4
            BCi = ROL(Eke, 10);
    2a78:	0162df93          	srli	t6,t0,0x16
    2a7c:	00a31393          	slli	t2,t1,0xa
    2a80:	007f8fb3          	add	t6,t6,t2
    2a84:	01635313          	srli	t1,t1,0x16
    2a88:	00a29293          	slli	t0,t0,0xa
    2a8c:	00530333          	add	t1,t1,t0
            Emi ^= Di;
    2a90:	07812283          	lw	t0,120(sp)
    2a94:	00f2c933          	xor	s2,t0,a5
    2a98:	07c12283          	lw	t0,124(sp)
    2a9c:	0092c2b3          	xor	t0,t0,s1
            BCo = ROL(Emi, 15);
    2aa0:	0112db13          	srli	s6,t0,0x11
    2aa4:	00f91393          	slli	t2,s2,0xf
    2aa8:	007b0b33          	add	s6,s6,t2
    2aac:	01195913          	srli	s2,s2,0x11
    2ab0:	00f29293          	slli	t0,t0,0xf
    2ab4:	00590933          	add	s2,s2,t0
            Eso ^= Do;
    2ab8:	06c12283          	lw	t0,108(sp)
    2abc:	0102c2b3          	xor	t0,t0,a6
    2ac0:	07012383          	lw	t2,112(sp)
    2ac4:	00d3c3b3          	xor	t2,t2,a3
            BCu = ROL(Eso, 56);
    2ac8:	01839993          	slli	s3,t2,0x18
    2acc:	0082dc13          	srli	s8,t0,0x8
    2ad0:	018989b3          	add	s3,s3,s8
    2ad4:	01829293          	slli	t0,t0,0x18
    2ad8:	0083d393          	srli	t2,t2,0x8
    2adc:	007282b3          	add	t0,t0,t2
            Ama =   BCa ^((~BCe)&  BCi );
    2ae0:	fffa4c13          	not	s8,s4
    2ae4:	fff44393          	not	t2,s0
    2ae8:	01fc7c33          	and	s8,s8,t6
    2aec:	0063f3b3          	and	t2,t2,t1
    2af0:	00bc4c33          	xor	s8,s8,a1
    2af4:	07812623          	sw	s8,108(sp)
    2af8:	00c3c3b3          	xor	t2,t2,a2
    2afc:	06712823          	sw	t2,112(sp)
            Ame =   BCe ^((~BCi)&  BCo );
    2b00:	ffffcc13          	not	s8,t6
    2b04:	fff34393          	not	t2,t1
    2b08:	016c7c33          	and	s8,s8,s6
    2b0c:	0123f3b3          	and	t2,t2,s2
    2b10:	014c4c33          	xor	s8,s8,s4
    2b14:	0b812223          	sw	s8,164(sp)
    2b18:	0083c3b3          	xor	t2,t2,s0
    2b1c:	06712a23          	sw	t2,116(sp)
            Ami =   BCi ^((~BCo)&  BCu );
    2b20:	fffb4c13          	not	s8,s6
    2b24:	fff94393          	not	t2,s2
    2b28:	013c7c33          	and	s8,s8,s3
    2b2c:	0053f3b3          	and	t2,t2,t0
    2b30:	01fc4fb3          	xor	t6,s8,t6
    2b34:	07f12c23          	sw	t6,120(sp)
    2b38:	0063c333          	xor	t1,t2,t1
    2b3c:	06612e23          	sw	t1,124(sp)
            Amo =   BCo ^((~BCu)&  BCa );
    2b40:	fff9c393          	not	t2,s3
    2b44:	fff2cf93          	not	t6,t0
    2b48:	00b3f3b3          	and	t2,t2,a1
    2b4c:	00cfffb3          	and	t6,t6,a2
    2b50:	0163c3b3          	xor	t2,t2,s6
    2b54:	012fcfb3          	xor	t6,t6,s2
            Amu =   BCu ^((~BCa)&  BCe );
    2b58:	fff5c593          	not	a1,a1
    2b5c:	fff64613          	not	a2,a2
    2b60:	0145f5b3          	and	a1,a1,s4
    2b64:	00867633          	and	a2,a2,s0
    2b68:	0135c5b3          	xor	a1,a1,s3
    2b6c:	08b12023          	sw	a1,128(sp)
    2b70:	00564633          	xor	a2,a2,t0
    2b74:	08c12223          	sw	a2,132(sp)

            Ebi ^= Di;
    2b78:	0ac12603          	lw	a2,172(sp)
    2b7c:	00f647b3          	xor	a5,a2,a5
    2b80:	0b012603          	lw	a2,176(sp)
    2b84:	009644b3          	xor	s1,a2,s1
            BCa = ROL(Ebi, 62);
    2b88:	01e49613          	slli	a2,s1,0x1e
    2b8c:	0027d593          	srli	a1,a5,0x2
    2b90:	00b60633          	add	a2,a2,a1
    2b94:	01e79793          	slli	a5,a5,0x1e
    2b98:	0024d493          	srli	s1,s1,0x2
    2b9c:	009787b3          	add	a5,a5,s1
            Ego ^= Do;
    2ba0:	0c412583          	lw	a1,196(sp)
    2ba4:	0105c833          	xor	a6,a1,a6
    2ba8:	0c812583          	lw	a1,200(sp)
    2bac:	00d5c6b3          	xor	a3,a1,a3
            BCe = ROL(Ego, 55);
    2bb0:	01769593          	slli	a1,a3,0x17
    2bb4:	00985313          	srli	t1,a6,0x9
    2bb8:	006585b3          	add	a1,a1,t1
    2bbc:	01781813          	slli	a6,a6,0x17
    2bc0:	0096d693          	srli	a3,a3,0x9
    2bc4:	00d80833          	add	a6,a6,a3
            Eku ^= Du;
    2bc8:	08812683          	lw	a3,136(sp)
    2bcc:	01c6ce33          	xor	t3,a3,t3
    2bd0:	08c12683          	lw	a3,140(sp)
    2bd4:	00e6c733          	xor	a4,a3,a4
            BCi = ROL(Eku, 39);
    2bd8:	00771693          	slli	a3,a4,0x7
    2bdc:	019e5313          	srli	t1,t3,0x19
    2be0:	006686b3          	add	a3,a3,t1
    2be4:	007e1e13          	slli	t3,t3,0x7
    2be8:	01975713          	srli	a4,a4,0x19
    2bec:	00ee0e33          	add	t3,t3,a4
            Ema ^= Da;
    2bf0:	09812703          	lw	a4,152(sp)
    2bf4:	011748b3          	xor	a7,a4,a7
    2bf8:	09c12703          	lw	a4,156(sp)
    2bfc:	01e74f33          	xor	t5,a4,t5
            BCo = ROL(Ema, 41);
    2c00:	009f1713          	slli	a4,t5,0x9
    2c04:	0178d313          	srli	t1,a7,0x17
    2c08:	00670733          	add	a4,a4,t1
    2c0c:	00989893          	slli	a7,a7,0x9
    2c10:	017f5f13          	srli	t5,t5,0x17
    2c14:	01e888b3          	add	a7,a7,t5
            Ese ^= De;
    2c18:	09012303          	lw	t1,144(sp)
    2c1c:	00a34533          	xor	a0,t1,a0
    2c20:	09412303          	lw	t1,148(sp)
    2c24:	01d34eb3          	xor	t4,t1,t4
            BCu = ROL(Ese, 2);
    2c28:	01eed313          	srli	t1,t4,0x1e
    2c2c:	00251f13          	slli	t5,a0,0x2
    2c30:	01e30333          	add	t1,t1,t5
    2c34:	01e55513          	srli	a0,a0,0x1e
    2c38:	002e9e93          	slli	t4,t4,0x2
    2c3c:	01d50533          	add	a0,a0,t4
            Asa =   BCa ^((~BCe)&  BCi );
    2c40:	fff5cf13          	not	t5,a1
    2c44:	fff84e93          	not	t4,a6
    2c48:	00df7f33          	and	t5,t5,a3
    2c4c:	01cefeb3          	and	t4,t4,t3
    2c50:	00cf4f33          	xor	t5,t5,a2
    2c54:	09e12423          	sw	t5,136(sp)
    2c58:	00feceb3          	xor	t4,t4,a5
    2c5c:	09d12623          	sw	t4,140(sp)
            Ase =   BCe ^((~BCi)&  BCo );
    2c60:	fff6cf13          	not	t5,a3
    2c64:	fffe4e93          	not	t4,t3
    2c68:	00ef7f33          	and	t5,t5,a4
    2c6c:	011efeb3          	and	t4,t4,a7
    2c70:	00bf4f33          	xor	t5,t5,a1
    2c74:	09e12823          	sw	t5,144(sp)
    2c78:	010eceb3          	xor	t4,t4,a6
    2c7c:	09d12a23          	sw	t4,148(sp)
            Asi =   BCi ^((~BCo)&  BCu );
    2c80:	fff74d13          	not	s10,a4
    2c84:	fff8c993          	not	s3,a7
    2c88:	006d7d33          	and	s10,s10,t1
    2c8c:	00a9f9b3          	and	s3,s3,a0
    2c90:	00dd4d33          	xor	s10,s10,a3
    2c94:	01c9c9b3          	xor	s3,s3,t3
            Aso =   BCo ^((~BCu)&  BCa );
    2c98:	fff34e13          	not	t3,t1
    2c9c:	fff54693          	not	a3,a0
    2ca0:	00ce7e33          	and	t3,t3,a2
    2ca4:	00f6f6b3          	and	a3,a3,a5
    2ca8:	00ee4733          	xor	a4,t3,a4
    2cac:	08e12c23          	sw	a4,152(sp)
    2cb0:	0116c733          	xor	a4,a3,a7
    2cb4:	08e12e23          	sw	a4,156(sp)
            Asu =   BCu ^((~BCa)&  BCe );
    2cb8:	fff64613          	not	a2,a2
    2cbc:	fff7c793          	not	a5,a5
    2cc0:	00b67633          	and	a2,a2,a1
    2cc4:	0107f7b3          	and	a5,a5,a6
    2cc8:	00664633          	xor	a2,a2,t1
    2ccc:	00a7c433          	xor	s0,a5,a0
        for( round = 0; round < NROUNDS; round += 2 )
    2cd0:	010a8a93          	addi	s5,s5,16
    2cd4:	00001797          	auipc	a5,0x1
    2cd8:	68c78793          	addi	a5,a5,1676 # 4360 <_bss_end>
    2cdc:	00fa8463          	beq	s5,a5,2ce4 <KeccakF1600_StatePermute+0x1304>
    2ce0:	ebdfe06f          	j	1b9c <KeccakF1600_StatePermute+0x1bc>
        }

        //copyToState(state, A)
        state[ 0] = Aba;
    2ce4:	0cc12b03          	lw	s6,204(sp)
    2ce8:	0a012c03          	lw	s8,160(sp)
    2cec:	000b8713          	mv	a4,s7
    2cf0:	000d8b93          	mv	s7,s11
    2cf4:	0a412d83          	lw	s11,164(sp)
    2cf8:	017b2023          	sw	s7,0(s6)
    2cfc:	018b2223          	sw	s8,4(s6)
        state[ 1] = Abe;
    2d00:	00412783          	lw	a5,4(sp)
    2d04:	00fb2423          	sw	a5,8(s6)
    2d08:	00812783          	lw	a5,8(sp)
    2d0c:	00fb2623          	sw	a5,12(s6)
        state[ 2] = Abi;
    2d10:	00c12783          	lw	a5,12(sp)
    2d14:	00fb2823          	sw	a5,16(s6)
    2d18:	01012783          	lw	a5,16(sp)
    2d1c:	00fb2a23          	sw	a5,20(s6)
        state[ 3] = Abo;
    2d20:	01412783          	lw	a5,20(sp)
    2d24:	00fb2c23          	sw	a5,24(s6)
    2d28:	01812783          	lw	a5,24(sp)
    2d2c:	00fb2e23          	sw	a5,28(s6)
        state[ 4] = Abu;
    2d30:	01c12783          	lw	a5,28(sp)
    2d34:	02fb2023          	sw	a5,32(s6)
    2d38:	02012783          	lw	a5,32(sp)
    2d3c:	02fb2223          	sw	a5,36(s6)
        state[ 5] = Aga;
    2d40:	02412783          	lw	a5,36(sp)
    2d44:	02fb2423          	sw	a5,40(s6)
    2d48:	02812783          	lw	a5,40(sp)
    2d4c:	02fb2623          	sw	a5,44(s6)
        state[ 6] = Age;
    2d50:	039b2823          	sw	s9,48(s6)
    2d54:	02c12783          	lw	a5,44(sp)
    2d58:	02fb2a23          	sw	a5,52(s6)
        state[ 7] = Agi;
    2d5c:	03012783          	lw	a5,48(sp)
    2d60:	02fb2c23          	sw	a5,56(s6)
    2d64:	03412783          	lw	a5,52(sp)
    2d68:	02fb2e23          	sw	a5,60(s6)
        state[ 8] = Ago;
    2d6c:	03812783          	lw	a5,56(sp)
    2d70:	04fb2023          	sw	a5,64(s6)
    2d74:	03c12783          	lw	a5,60(sp)
    2d78:	04fb2223          	sw	a5,68(s6)
        state[ 9] = Agu;
    2d7c:	04012783          	lw	a5,64(sp)
    2d80:	04fb2423          	sw	a5,72(s6)
    2d84:	04412783          	lw	a5,68(sp)
    2d88:	04fb2623          	sw	a5,76(s6)
        state[10] = Aka;
    2d8c:	04812783          	lw	a5,72(sp)
    2d90:	04fb2823          	sw	a5,80(s6)
    2d94:	04c12783          	lw	a5,76(sp)
    2d98:	04fb2a23          	sw	a5,84(s6)
        state[11] = Ake;
    2d9c:	05012783          	lw	a5,80(sp)
    2da0:	04fb2c23          	sw	a5,88(s6)
    2da4:	05412783          	lw	a5,84(sp)
    2da8:	04fb2e23          	sw	a5,92(s6)
        state[12] = Aki;
    2dac:	06eb2023          	sw	a4,96(s6)
    2db0:	05812783          	lw	a5,88(sp)
    2db4:	06fb2223          	sw	a5,100(s6)
        state[13] = Ako;
    2db8:	05c12783          	lw	a5,92(sp)
    2dbc:	06fb2423          	sw	a5,104(s6)
    2dc0:	06012783          	lw	a5,96(sp)
    2dc4:	06fb2623          	sw	a5,108(s6)
        state[14] = Aku;
    2dc8:	06412783          	lw	a5,100(sp)
    2dcc:	06fb2823          	sw	a5,112(s6)
    2dd0:	06812783          	lw	a5,104(sp)
    2dd4:	06fb2a23          	sw	a5,116(s6)
        state[15] = Ama;
    2dd8:	06c12783          	lw	a5,108(sp)
    2ddc:	06fb2c23          	sw	a5,120(s6)
    2de0:	07012783          	lw	a5,112(sp)
    2de4:	06fb2e23          	sw	a5,124(s6)
        state[16] = Ame;
    2de8:	09bb2023          	sw	s11,128(s6)
    2dec:	07412783          	lw	a5,116(sp)
    2df0:	08fb2223          	sw	a5,132(s6)
        state[17] = Ami;
    2df4:	07812783          	lw	a5,120(sp)
    2df8:	08fb2423          	sw	a5,136(s6)
    2dfc:	07c12783          	lw	a5,124(sp)
    2e00:	08fb2623          	sw	a5,140(s6)
        state[18] = Amo;
    2e04:	087b2823          	sw	t2,144(s6)
    2e08:	09fb2a23          	sw	t6,148(s6)
        state[19] = Amu;
    2e0c:	08012783          	lw	a5,128(sp)
    2e10:	08fb2c23          	sw	a5,152(s6)
    2e14:	08412783          	lw	a5,132(sp)
    2e18:	08fb2e23          	sw	a5,156(s6)
        state[20] = Asa;
    2e1c:	08812783          	lw	a5,136(sp)
    2e20:	0afb2023          	sw	a5,160(s6)
    2e24:	08c12783          	lw	a5,140(sp)
    2e28:	0afb2223          	sw	a5,164(s6)
        state[21] = Ase;
    2e2c:	0beb2423          	sw	t5,168(s6)
    2e30:	0bdb2623          	sw	t4,172(s6)
        state[22] = Asi;
    2e34:	0bab2823          	sw	s10,176(s6)
    2e38:	0b3b2a23          	sw	s3,180(s6)
        state[23] = Aso;
    2e3c:	09812783          	lw	a5,152(sp)
    2e40:	0afb2c23          	sw	a5,184(s6)
    2e44:	09c12783          	lw	a5,156(sp)
    2e48:	0afb2e23          	sw	a5,188(s6)
        state[24] = Asu;
    2e4c:	0ccb2023          	sw	a2,192(s6)
    2e50:	0c8b2223          	sw	s0,196(s6)
}
    2e54:	0fc12403          	lw	s0,252(sp)
    2e58:	0f812483          	lw	s1,248(sp)
    2e5c:	0f412903          	lw	s2,244(sp)
    2e60:	0f012983          	lw	s3,240(sp)
    2e64:	0ec12a03          	lw	s4,236(sp)
    2e68:	0e812a83          	lw	s5,232(sp)
    2e6c:	0e412b03          	lw	s6,228(sp)
    2e70:	0e012b83          	lw	s7,224(sp)
    2e74:	0dc12c03          	lw	s8,220(sp)
    2e78:	0d812c83          	lw	s9,216(sp)
    2e7c:	0d412d03          	lw	s10,212(sp)
    2e80:	0d012d83          	lw	s11,208(sp)
    2e84:	10010113          	addi	sp,sp,256
    2e88:	00008067          	ret

00002e8c <keccak_init>:
* Arguments:   - keccak_state *state: pointer to Keccak state
**************************************************/
static void keccak_init(keccak_state *state)
{
  unsigned int i;
  for(i=0;i<25;i++)
    2e8c:	00050793          	mv	a5,a0
    2e90:	0c850713          	addi	a4,a0,200
    state->s[i] = 0;
    2e94:	00000613          	li	a2,0
    2e98:	00000693          	li	a3,0
    2e9c:	00c7a023          	sw	a2,0(a5)
    2ea0:	00d7a223          	sw	a3,4(a5)
  for(i=0;i<25;i++)
    2ea4:	00878793          	addi	a5,a5,8
    2ea8:	fee796e3          	bne	a5,a4,2e94 <keccak_init+0x8>
  state->pos = 0;
    2eac:	0c052423          	sw	zero,200(a0)
}
    2eb0:	00008067          	ret

00002eb4 <keccak_absorb>:
static unsigned int keccak_absorb(uint64_t s[25],
                                  unsigned int r,
                                  unsigned int pos,
                                  const uint8_t *m,
                                  size_t mlen)
{
    2eb4:	fc010113          	addi	sp,sp,-64
    2eb8:	02112e23          	sw	ra,60(sp)
    2ebc:	02812c23          	sw	s0,56(sp)
    2ec0:	02912a23          	sw	s1,52(sp)
    2ec4:	03212823          	sw	s2,48(sp)
    2ec8:	03312623          	sw	s3,44(sp)
    2ecc:	03412423          	sw	s4,40(sp)
    2ed0:	03512223          	sw	s5,36(sp)
    2ed4:	03612023          	sw	s6,32(sp)
    2ed8:	01712e23          	sw	s7,28(sp)
    2edc:	01812c23          	sw	s8,24(sp)
    2ee0:	00050b13          	mv	s6,a0
    2ee4:	00058a93          	mv	s5,a1
    2ee8:	00060b93          	mv	s7,a2
    2eec:	00068993          	mv	s3,a3
    2ef0:	00070a13          	mv	s4,a4
  unsigned int i;
  uint8_t t[8] = {0};
    2ef4:	00012423          	sw	zero,8(sp)
    2ef8:	00012623          	sw	zero,12(sp)

  if(pos & 7) {
    2efc:	00767613          	andi	a2,a2,7
    2f00:	06060463          	beqz	a2,2f68 <keccak_absorb+0xb4>
    i = pos & 7;
    while(i < 8 && mlen > 0) {
    2f04:	0e070263          	beqz	a4,2fe8 <keccak_absorb+0x134>
    i = pos & 7;
    2f08:	00060413          	mv	s0,a2
      t[i++] = *m++;
    2f0c:	00810693          	addi	a3,sp,8
    2f10:	00198993          	addi	s3,s3,1
    2f14:	00140413          	addi	s0,s0,1
    2f18:	008687b3          	add	a5,a3,s0
    2f1c:	fff9c703          	lbu	a4,-1(s3)
    2f20:	fee78fa3          	sb	a4,-1(a5)
      mlen--;
    2f24:	fffa0a13          	addi	s4,s4,-1 # fff <pqcrystals_dilithium2_ref_poly_challenge+0x8b>
    while(i < 8 && mlen > 0) {
    2f28:	00843793          	sltiu	a5,s0,8
    2f2c:	00078463          	beqz	a5,2f34 <keccak_absorb+0x80>
    2f30:	fe0a10e3          	bnez	s4,2f10 <keccak_absorb+0x5c>
    2f34:	008b8bb3          	add	s7,s7,s0
      pos++;
    2f38:	40cb8bb3          	sub	s7,s7,a2
    }
    s[(pos-i)/8] ^= load64(t);
    2f3c:	00810513          	addi	a0,sp,8
    2f40:	9f5fe0ef          	jal	1934 <load64>
    2f44:	408b87b3          	sub	a5,s7,s0
    2f48:	ff87f793          	andi	a5,a5,-8
    2f4c:	00fb07b3          	add	a5,s6,a5
    2f50:	0007a703          	lw	a4,0(a5)
    2f54:	00a746b3          	xor	a3,a4,a0
    2f58:	0047a703          	lw	a4,4(a5)
    2f5c:	00b74733          	xor	a4,a4,a1
    2f60:	00d7a023          	sw	a3,0(a5)
    2f64:	00e7a223          	sw	a4,4(a5)
  }

  if(pos && mlen >= r-pos) {
    2f68:	060b8663          	beqz	s7,2fd4 <keccak_absorb+0x120>
    2f6c:	417a8c33          	sub	s8,s5,s7
    2f70:	078a6263          	bltu	s4,s8,2fd4 <keccak_absorb+0x120>
    for(i=0;i<(r-pos)/8;i++)
    2f74:	003c5793          	srli	a5,s8,0x3
    2f78:	04078263          	beqz	a5,2fbc <keccak_absorb+0x108>
    2f7c:	00098493          	mv	s1,s3
    2f80:	ff8bf413          	andi	s0,s7,-8
    2f84:	008b0433          	add	s0,s6,s0
    2f88:	00379793          	slli	a5,a5,0x3
    2f8c:	01378933          	add	s2,a5,s3
      s[pos/8+i] ^= load64(m+8*i);
    2f90:	00048513          	mv	a0,s1
    2f94:	9a1fe0ef          	jal	1934 <load64>
    2f98:	00042783          	lw	a5,0(s0)
    2f9c:	00a7c533          	xor	a0,a5,a0
    2fa0:	00442783          	lw	a5,4(s0)
    2fa4:	00b7c7b3          	xor	a5,a5,a1
    2fa8:	00a42023          	sw	a0,0(s0)
    2fac:	00f42223          	sw	a5,4(s0)
    for(i=0;i<(r-pos)/8;i++)
    2fb0:	00848493          	addi	s1,s1,8
    2fb4:	00840413          	addi	s0,s0,8
    2fb8:	fd249ce3          	bne	s1,s2,2f90 <keccak_absorb+0xdc>
    m += r-pos;
    2fbc:	018989b3          	add	s3,s3,s8
    mlen -= r-pos;
    2fc0:	014b8a33          	add	s4,s7,s4
    2fc4:	415a0a33          	sub	s4,s4,s5
    pos = 0;
    KeccakF1600_StatePermute(s);
    2fc8:	000b0513          	mv	a0,s6
    2fcc:	a15fe0ef          	jal	19e0 <KeccakF1600_StatePermute>
    pos = 0;
    2fd0:	00000b93          	li	s7,0
  }

  while(mlen >= r) {
    2fd4:	075a6663          	bltu	s4,s5,3040 <keccak_absorb+0x18c>
    for(i=0;i<r/8;i++)
    2fd8:	003adc13          	srli	s8,s5,0x3
    2fdc:	ff8af913          	andi	s2,s5,-8
    2fe0:	01690933          	add	s2,s2,s6
    2fe4:	04c0006f          	j	3030 <keccak_absorb+0x17c>
    i = pos & 7;
    2fe8:	00060413          	mv	s0,a2
    2fec:	f51ff06f          	j	2f3c <keccak_absorb+0x88>
      s[i] ^= load64(m+8*i);
    2ff0:	00048513          	mv	a0,s1
    2ff4:	941fe0ef          	jal	1934 <load64>
    2ff8:	00042783          	lw	a5,0(s0)
    2ffc:	00a7c533          	xor	a0,a5,a0
    3000:	00442783          	lw	a5,4(s0)
    3004:	00b7c7b3          	xor	a5,a5,a1
    3008:	00a42023          	sw	a0,0(s0)
    300c:	00f42223          	sw	a5,4(s0)
    for(i=0;i<r/8;i++)
    3010:	00848493          	addi	s1,s1,8
    3014:	00840413          	addi	s0,s0,8
    3018:	fd241ce3          	bne	s0,s2,2ff0 <keccak_absorb+0x13c>
    m += r;
    301c:	015989b3          	add	s3,s3,s5
    mlen -= r;
    3020:	415a0a33          	sub	s4,s4,s5
    KeccakF1600_StatePermute(s);
    3024:	000b0513          	mv	a0,s6
    3028:	9b9fe0ef          	jal	19e0 <KeccakF1600_StatePermute>
  while(mlen >= r) {
    302c:	015a6a63          	bltu	s4,s5,3040 <keccak_absorb+0x18c>
    for(i=0;i<r/8;i++)
    3030:	00098493          	mv	s1,s3
    3034:	000b0413          	mv	s0,s6
    3038:	fa0c1ce3          	bnez	s8,2ff0 <keccak_absorb+0x13c>
    303c:	fe1ff06f          	j	301c <keccak_absorb+0x168>
  }

  for(i=0;i<mlen/8;i++)
    3040:	003a5a93          	srli	s5,s4,0x3
    3044:	040a8263          	beqz	s5,3088 <keccak_absorb+0x1d4>
    3048:	00098493          	mv	s1,s3
    304c:	ff8bf413          	andi	s0,s7,-8
    3050:	008b0433          	add	s0,s6,s0
    3054:	003a9913          	slli	s2,s5,0x3
    3058:	01390933          	add	s2,s2,s3
    s[pos/8+i] ^= load64(m+8*i);
    305c:	00048513          	mv	a0,s1
    3060:	8d5fe0ef          	jal	1934 <load64>
    3064:	00042783          	lw	a5,0(s0)
    3068:	00a7c533          	xor	a0,a5,a0
    306c:	00442783          	lw	a5,4(s0)
    3070:	00b7c7b3          	xor	a5,a5,a1
    3074:	00a42023          	sw	a0,0(s0)
    3078:	00f42223          	sw	a5,4(s0)
  for(i=0;i<mlen/8;i++)
    307c:	00848493          	addi	s1,s1,8
    3080:	00840413          	addi	s0,s0,8
    3084:	fd249ce3          	bne	s1,s2,305c <keccak_absorb+0x1a8>
  m += 8*i;
    3088:	003a9a93          	slli	s5,s5,0x3
  mlen -= 8*i;
    308c:	415a06b3          	sub	a3,s4,s5
  pos += 8*i;
    3090:	017a8433          	add	s0,s5,s7

  if(mlen) {
    3094:	075a0863          	beq	s4,s5,3104 <keccak_absorb+0x250>
    for(i=0;i<8;i++)
      t[i] = 0;
    3098:	00010423          	sb	zero,8(sp)
    309c:	000104a3          	sb	zero,9(sp)
    30a0:	00010523          	sb	zero,10(sp)
    30a4:	000105a3          	sb	zero,11(sp)
    30a8:	00010623          	sb	zero,12(sp)
    30ac:	000106a3          	sb	zero,13(sp)
    30b0:	00010723          	sb	zero,14(sp)
    30b4:	000107a3          	sb	zero,15(sp)
    for(i=0;i<8;i++)
    30b8:	015989b3          	add	s3,s3,s5
    30bc:	00810793          	addi	a5,sp,8
    30c0:	00f686b3          	add	a3,a3,a5
    for(i=0;i<mlen;i++)
      t[i] = m[i];
    30c4:	0009c703          	lbu	a4,0(s3)
    30c8:	00e78023          	sb	a4,0(a5)
    for(i=0;i<mlen;i++)
    30cc:	00198993          	addi	s3,s3,1
    30d0:	00178793          	addi	a5,a5,1
    30d4:	fef698e3          	bne	a3,a5,30c4 <keccak_absorb+0x210>
    s[pos/8] ^= load64(t);
    30d8:	00810513          	addi	a0,sp,8
    30dc:	859fe0ef          	jal	1934 <load64>
    30e0:	ff847413          	andi	s0,s0,-8
    30e4:	008b0b33          	add	s6,s6,s0
    30e8:	000b2783          	lw	a5,0(s6)
    30ec:	00a7c733          	xor	a4,a5,a0
    30f0:	004b2783          	lw	a5,4(s6)
    30f4:	00b7c7b3          	xor	a5,a5,a1
    30f8:	00eb2023          	sw	a4,0(s6)
    30fc:	00fb2223          	sw	a5,4(s6)
    pos += mlen;
    3100:	014b8433          	add	s0,s7,s4
  }

  return pos;
}
    3104:	00040513          	mv	a0,s0
    3108:	03c12083          	lw	ra,60(sp)
    310c:	03812403          	lw	s0,56(sp)
    3110:	03412483          	lw	s1,52(sp)
    3114:	03012903          	lw	s2,48(sp)
    3118:	02c12983          	lw	s3,44(sp)
    311c:	02812a03          	lw	s4,40(sp)
    3120:	02412a83          	lw	s5,36(sp)
    3124:	02012b03          	lw	s6,32(sp)
    3128:	01c12b83          	lw	s7,28(sp)
    312c:	01812c03          	lw	s8,24(sp)
    3130:	04010113          	addi	sp,sp,64
    3134:	00008067          	ret

00003138 <keccak_finalize>:
{
  unsigned int i,j;

  i = pos >> 3;
  j = pos & 7;
  s[i] ^= (uint64_t)p << 8*j;
    3138:	ff867793          	andi	a5,a2,-8
    313c:	00f507b3          	add	a5,a0,a5
  j = pos & 7;
    3140:	00767613          	andi	a2,a2,7
  s[i] ^= (uint64_t)p << 8*j;
    3144:	00361613          	slli	a2,a2,0x3
    3148:	fe060713          	addi	a4,a2,-32
    314c:	04074263          	bltz	a4,3190 <keccak_finalize+0x58>
    3150:	00e69733          	sll	a4,a3,a4
    3154:	00000693          	li	a3,0
    3158:	0007a603          	lw	a2,0(a5)
    315c:	00d64633          	xor	a2,a2,a3
    3160:	0047a683          	lw	a3,4(a5)
    3164:	00e6c733          	xor	a4,a3,a4
    3168:	00c7a023          	sw	a2,0(a5)
    316c:	00e7a223          	sw	a4,4(a5)
  s[r/8-1] ^= 1ULL << 63;
    3170:	ff85f593          	andi	a1,a1,-8
    3174:	ff858593          	addi	a1,a1,-8
    3178:	00b50533          	add	a0,a0,a1
    317c:	00452783          	lw	a5,4(a0)
    3180:	80000737          	lui	a4,0x80000
    3184:	00e7c7b3          	xor	a5,a5,a4
    3188:	00f52223          	sw	a5,4(a0)
}
    318c:	00008067          	ret
  s[i] ^= (uint64_t)p << 8*j;
    3190:	0016d713          	srli	a4,a3,0x1
    3194:	01f00813          	li	a6,31
    3198:	40c80833          	sub	a6,a6,a2
    319c:	01075733          	srl	a4,a4,a6
    31a0:	00c696b3          	sll	a3,a3,a2
    31a4:	fb5ff06f          	j	3158 <keccak_finalize+0x20>

000031a8 <keccak_squeezeblocks>:
                                 uint64_t s[25],
                                 unsigned int r)
{
  unsigned int i;

  while(nblocks > 0) {
    31a8:	0a058863          	beqz	a1,3258 <keccak_squeezeblocks+0xb0>
{
    31ac:	fd010113          	addi	sp,sp,-48
    31b0:	02112623          	sw	ra,44(sp)
    31b4:	02812423          	sw	s0,40(sp)
    31b8:	02912223          	sw	s1,36(sp)
    31bc:	03212023          	sw	s2,32(sp)
    31c0:	01312e23          	sw	s3,28(sp)
    31c4:	01412c23          	sw	s4,24(sp)
    31c8:	01512a23          	sw	s5,20(sp)
    31cc:	01612823          	sw	s6,16(sp)
    31d0:	01712623          	sw	s7,12(sp)
    31d4:	00050a13          	mv	s4,a0
    31d8:	00058993          	mv	s3,a1
    31dc:	00060a93          	mv	s5,a2
    31e0:	00068b13          	mv	s6,a3
    KeccakF1600_StatePermute(s);
    for(i=0;i<r/8;i++)
    31e4:	0036db93          	srli	s7,a3,0x3
    31e8:	ff86f913          	andi	s2,a3,-8
    31ec:	00c90933          	add	s2,s2,a2
    KeccakF1600_StatePermute(s);
    31f0:	000a8513          	mv	a0,s5
    31f4:	fecfe0ef          	jal	19e0 <KeccakF1600_StatePermute>
    for(i=0;i<r/8;i++)
    31f8:	020b8463          	beqz	s7,3220 <keccak_squeezeblocks+0x78>
    31fc:	000a8413          	mv	s0,s5
    3200:	000a0493          	mv	s1,s4
      store64(out + 8*i, s[i]);
    3204:	00042583          	lw	a1,0(s0)
    3208:	00442603          	lw	a2,4(s0)
    320c:	00048513          	mv	a0,s1
    3210:	f88fe0ef          	jal	1998 <store64>
    for(i=0;i<r/8;i++)
    3214:	00840413          	addi	s0,s0,8
    3218:	00848493          	addi	s1,s1,8
    321c:	ff2414e3          	bne	s0,s2,3204 <keccak_squeezeblocks+0x5c>
    out += r;
    3220:	016a0a33          	add	s4,s4,s6
    nblocks--;
    3224:	fff98993          	addi	s3,s3,-1
  while(nblocks > 0) {
    3228:	fc0994e3          	bnez	s3,31f0 <keccak_squeezeblocks+0x48>
  }
}
    322c:	02c12083          	lw	ra,44(sp)
    3230:	02812403          	lw	s0,40(sp)
    3234:	02412483          	lw	s1,36(sp)
    3238:	02012903          	lw	s2,32(sp)
    323c:	01c12983          	lw	s3,28(sp)
    3240:	01812a03          	lw	s4,24(sp)
    3244:	01412a83          	lw	s5,20(sp)
    3248:	01012b03          	lw	s6,16(sp)
    324c:	00c12b83          	lw	s7,12(sp)
    3250:	03010113          	addi	sp,sp,48
    3254:	00008067          	ret
    3258:	00008067          	ret

0000325c <keccak_squeeze>:
static unsigned int keccak_squeeze(uint8_t *out,
                                   size_t outlen,
                                   uint64_t s[25],
                                   unsigned int r,
                                   unsigned int pos)
{
    325c:	fc010113          	addi	sp,sp,-64
    3260:	02112e23          	sw	ra,60(sp)
    3264:	02812c23          	sw	s0,56(sp)
    3268:	02912a23          	sw	s1,52(sp)
    326c:	03212823          	sw	s2,48(sp)
    3270:	03312623          	sw	s3,44(sp)
    3274:	03412423          	sw	s4,40(sp)
    3278:	03512223          	sw	s5,36(sp)
    327c:	03612023          	sw	s6,32(sp)
    3280:	01712e23          	sw	s7,28(sp)
    3284:	01812c23          	sw	s8,24(sp)
    3288:	00050a13          	mv	s4,a0
    328c:	00058993          	mv	s3,a1
    3290:	00060b93          	mv	s7,a2
    3294:	00068a93          	mv	s5,a3
    3298:	00070b13          	mv	s6,a4
  unsigned int i;
  uint8_t t[8];

  if(pos & 7) {
    329c:	00777413          	andi	s0,a4,7
    32a0:	10041a63          	bnez	s0,33b4 <keccak_squeeze+0x158>
      outlen--;
      pos++;
    }
  }

  if(pos && outlen >= r-pos) {
    32a4:	160b1263          	bnez	s6,3408 <keccak_squeeze+0x1ac>
    pos = 0;
  }

  while(outlen >= r) {
    KeccakF1600_StatePermute(s);
    for(i=0;i<r/8;i++)
    32a8:	003adc13          	srli	s8,s5,0x3
    32ac:	ff8af913          	andi	s2,s5,-8
    32b0:	01790933          	add	s2,s2,s7
  while(outlen >= r) {
    32b4:	0559e063          	bltu	s3,s5,32f4 <keccak_squeeze+0x98>
    KeccakF1600_StatePermute(s);
    32b8:	000b8513          	mv	a0,s7
    32bc:	f24fe0ef          	jal	19e0 <KeccakF1600_StatePermute>
    for(i=0;i<r/8;i++)
    32c0:	020c0463          	beqz	s8,32e8 <keccak_squeeze+0x8c>
    32c4:	000b8413          	mv	s0,s7
    32c8:	000a0493          	mv	s1,s4
      store64(out+8*i,s[i]);
    32cc:	00042583          	lw	a1,0(s0)
    32d0:	00442603          	lw	a2,4(s0)
    32d4:	00048513          	mv	a0,s1
    32d8:	ec0fe0ef          	jal	1998 <store64>
    for(i=0;i<r/8;i++)
    32dc:	00840413          	addi	s0,s0,8
    32e0:	00848493          	addi	s1,s1,8
    32e4:	ff2414e3          	bne	s0,s2,32cc <keccak_squeeze+0x70>
    out += r;
    32e8:	015a0a33          	add	s4,s4,s5
    outlen -= r;
    32ec:	415989b3          	sub	s3,s3,s5
  while(outlen >= r) {
    32f0:	fd59f4e3          	bgeu	s3,s5,32b8 <keccak_squeeze+0x5c>
  }

  if(!outlen)
    return pos;
    32f4:	000b0513          	mv	a0,s6
  if(!outlen)
    32f8:	08098663          	beqz	s3,3384 <keccak_squeeze+0x128>
  else if(!pos)
    32fc:	160b0063          	beqz	s6,345c <keccak_squeeze+0x200>
    KeccakF1600_StatePermute(s);

  for(i=0;i<outlen/8;i++)
    3300:	0039d913          	srli	s2,s3,0x3
    3304:	16090263          	beqz	s2,3468 <keccak_squeeze+0x20c>
    3308:	ff8b7493          	andi	s1,s6,-8
    330c:	009b84b3          	add	s1,s7,s1
    3310:	000a0413          	mv	s0,s4
    3314:	00391a93          	slli	s5,s2,0x3
    3318:	014a8ab3          	add	s5,s5,s4
    store64(out+8*i,s[pos/8+i]);
    331c:	0004a583          	lw	a1,0(s1)
    3320:	0044a603          	lw	a2,4(s1)
    3324:	00040513          	mv	a0,s0
    3328:	e70fe0ef          	jal	1998 <store64>
  for(i=0;i<outlen/8;i++)
    332c:	00848493          	addi	s1,s1,8
    3330:	00840413          	addi	s0,s0,8
    3334:	fe8a94e3          	bne	s5,s0,331c <keccak_squeeze+0xc0>
  out += 8*i;
    3338:	00391913          	slli	s2,s2,0x3
  outlen -= 8*i;
    333c:	41298433          	sub	s0,s3,s2
  pos += 8*i;
    3340:	016907b3          	add	a5,s2,s6

  store64(t,s[pos/8]);
    3344:	ff87f793          	andi	a5,a5,-8
    3348:	00fb87b3          	add	a5,s7,a5
    334c:	0007a583          	lw	a1,0(a5)
    3350:	0047a603          	lw	a2,4(a5)
    3354:	00810513          	addi	a0,sp,8
    3358:	e40fe0ef          	jal	1998 <store64>
  for(i=0;i<outlen;i++)
    335c:	02040263          	beqz	s0,3380 <keccak_squeeze+0x124>
    3360:	00810793          	addi	a5,sp,8
    3364:	012a0733          	add	a4,s4,s2
    3368:	00f40633          	add	a2,s0,a5
    out[i] = t[i];
    336c:	0007c683          	lbu	a3,0(a5)
    3370:	00d70023          	sb	a3,0(a4) # 80000000 <_stack_start+0x7fff0004>
  for(i=0;i<outlen;i++)
    3374:	00178793          	addi	a5,a5,1
    3378:	00170713          	addi	a4,a4,1
    337c:	fec798e3          	bne	a5,a2,336c <keccak_squeeze+0x110>
  pos += outlen;
    3380:	013b0533          	add	a0,s6,s3
  return pos;
}
    3384:	03c12083          	lw	ra,60(sp)
    3388:	03812403          	lw	s0,56(sp)
    338c:	03412483          	lw	s1,52(sp)
    3390:	03012903          	lw	s2,48(sp)
    3394:	02c12983          	lw	s3,44(sp)
    3398:	02812a03          	lw	s4,40(sp)
    339c:	02412a83          	lw	s5,36(sp)
    33a0:	02012b03          	lw	s6,32(sp)
    33a4:	01c12b83          	lw	s7,28(sp)
    33a8:	01812c03          	lw	s8,24(sp)
    33ac:	04010113          	addi	sp,sp,64
    33b0:	00008067          	ret
    store64(t,s[pos/8]);
    33b4:	ff877793          	andi	a5,a4,-8
    33b8:	00f607b3          	add	a5,a2,a5
    33bc:	0007a583          	lw	a1,0(a5)
    33c0:	0047a603          	lw	a2,4(a5)
    33c4:	00810513          	addi	a0,sp,8
    33c8:	dd0fe0ef          	jal	1998 <store64>
    while(i < 8 && outlen > 0) {
    33cc:	0a098e63          	beqz	s3,3488 <keccak_squeeze+0x22c>
    i = pos & 7;
    33d0:	00040793          	mv	a5,s0
      *out++ = t[i++];
    33d4:	00810693          	addi	a3,sp,8
    33d8:	00178793          	addi	a5,a5,1
    33dc:	001a0a13          	addi	s4,s4,1
    33e0:	00f68733          	add	a4,a3,a5
    33e4:	fff74703          	lbu	a4,-1(a4)
    33e8:	feea0fa3          	sb	a4,-1(s4)
      outlen--;
    33ec:	fff98993          	addi	s3,s3,-1
    while(i < 8 && outlen > 0) {
    33f0:	0087b713          	sltiu	a4,a5,8
    33f4:	00070463          	beqz	a4,33fc <keccak_squeeze+0x1a0>
    33f8:	fe0990e3          	bnez	s3,33d8 <keccak_squeeze+0x17c>
    33fc:	00fb07b3          	add	a5,s6,a5
      pos++;
    3400:	40878b33          	sub	s6,a5,s0
    3404:	ea1ff06f          	j	32a4 <keccak_squeeze+0x48>
  if(pos && outlen >= r-pos) {
    3408:	416a8c33          	sub	s8,s5,s6
    340c:	e989eee3          	bltu	s3,s8,32a8 <keccak_squeeze+0x4c>
    for(i=0;i<(r-pos)/8;i++)
    3410:	003c5793          	srli	a5,s8,0x3
    3414:	02078a63          	beqz	a5,3448 <keccak_squeeze+0x1ec>
    3418:	ff8b7493          	andi	s1,s6,-8
    341c:	009b84b3          	add	s1,s7,s1
    3420:	000a0413          	mv	s0,s4
    3424:	00379793          	slli	a5,a5,0x3
    3428:	01478933          	add	s2,a5,s4
      store64(out+8*i,s[pos/8+i]);
    342c:	0004a583          	lw	a1,0(s1)
    3430:	0044a603          	lw	a2,4(s1)
    3434:	00040513          	mv	a0,s0
    3438:	d60fe0ef          	jal	1998 <store64>
    for(i=0;i<(r-pos)/8;i++)
    343c:	00848493          	addi	s1,s1,8
    3440:	00840413          	addi	s0,s0,8
    3444:	ff2414e3          	bne	s0,s2,342c <keccak_squeeze+0x1d0>
    out += r-pos;
    3448:	018a0a33          	add	s4,s4,s8
    outlen -= r-pos;
    344c:	016989b3          	add	s3,s3,s6
    3450:	415989b3          	sub	s3,s3,s5
    pos = 0;
    3454:	00000b13          	li	s6,0
    3458:	e51ff06f          	j	32a8 <keccak_squeeze+0x4c>
    KeccakF1600_StatePermute(s);
    345c:	000b8513          	mv	a0,s7
    3460:	d80fe0ef          	jal	19e0 <KeccakF1600_StatePermute>
    3464:	e9dff06f          	j	3300 <keccak_squeeze+0xa4>
  store64(t,s[pos/8]);
    3468:	ff8b7793          	andi	a5,s6,-8
    346c:	00fb87b3          	add	a5,s7,a5
    3470:	0007a583          	lw	a1,0(a5)
    3474:	0047a603          	lw	a2,4(a5)
    3478:	00810513          	addi	a0,sp,8
    347c:	d1cfe0ef          	jal	1998 <store64>
  outlen -= 8*i;
    3480:	00098413          	mv	s0,s3
    3484:	eddff06f          	j	3360 <keccak_squeeze+0x104>
  if(pos && outlen >= r-pos) {
    3488:	416a8c33          	sub	s8,s5,s6
    348c:	e16a9ee3          	bne	s5,s6,32a8 <keccak_squeeze+0x4c>
    3490:	000c0993          	mv	s3,s8
    3494:	fb5ff06f          	j	3448 <keccak_squeeze+0x1ec>

00003498 <pqcrystals_fips202_ref_shake128_init>:
*
* Arguments:   - keccak_state *state: pointer to (uninitialized)
*                                     Keccak state
**************************************************/
void shake128_init(keccak_state *state)
{
    3498:	ff010113          	addi	sp,sp,-16
    349c:	00112623          	sw	ra,12(sp)
  keccak_init(state);
    34a0:	9edff0ef          	jal	2e8c <keccak_init>
}
    34a4:	00c12083          	lw	ra,12(sp)
    34a8:	01010113          	addi	sp,sp,16
    34ac:	00008067          	ret

000034b0 <pqcrystals_fips202_ref_shake128_absorb>:
*                                     Keccak state
*              - const uint8_t *in:   pointer to input to be absorbed into s
*              - size_t inlen:        length of input in bytes
**************************************************/
void shake128_absorb(keccak_state *state, const uint8_t *in, size_t inlen)
{
    34b0:	ff010113          	addi	sp,sp,-16
    34b4:	00112623          	sw	ra,12(sp)
    34b8:	00812423          	sw	s0,8(sp)
    34bc:	00050413          	mv	s0,a0
    34c0:	00058693          	mv	a3,a1
    34c4:	00060713          	mv	a4,a2
  state->pos = keccak_absorb(state->s, SHAKE128_RATE, state->pos, in, inlen);
    34c8:	0c852603          	lw	a2,200(a0)
    34cc:	0a800593          	li	a1,168
    34d0:	9e5ff0ef          	jal	2eb4 <keccak_absorb>
    34d4:	0ca42423          	sw	a0,200(s0)
}
    34d8:	00c12083          	lw	ra,12(sp)
    34dc:	00812403          	lw	s0,8(sp)
    34e0:	01010113          	addi	sp,sp,16
    34e4:	00008067          	ret

000034e8 <pqcrystals_fips202_ref_shake128_finalize>:
* Description: Finalize absorb step of the SHAKE128 XOF.
*
* Arguments:   - keccak_state *state: pointer to Keccak state
**************************************************/
void shake128_finalize(keccak_state *state)
{
    34e8:	ff010113          	addi	sp,sp,-16
    34ec:	00112623          	sw	ra,12(sp)
    34f0:	00812423          	sw	s0,8(sp)
    34f4:	00050413          	mv	s0,a0
  keccak_finalize(state->s, SHAKE128_RATE, state->pos, 0x1F);
    34f8:	01f00693          	li	a3,31
    34fc:	0c852603          	lw	a2,200(a0)
    3500:	0a800593          	li	a1,168
    3504:	c35ff0ef          	jal	3138 <keccak_finalize>
  state->pos = 0;
    3508:	0c042423          	sw	zero,200(s0)
}
    350c:	00c12083          	lw	ra,12(sp)
    3510:	00812403          	lw	s0,8(sp)
    3514:	01010113          	addi	sp,sp,16
    3518:	00008067          	ret

0000351c <pqcrystals_fips202_ref_shake128_squeezeblocks>:
*              - size_t nblocks:  number of blocks to be squeezed
*                                 (written to output)
*              - keccak_state *s: pointer to input/output Keccak state
**************************************************/
void shake128_squeezeblocks(uint8_t *out, size_t nblocks, keccak_state *state)
{
    351c:	ff010113          	addi	sp,sp,-16
    3520:	00112623          	sw	ra,12(sp)
  keccak_squeezeblocks(out, nblocks, state->s, SHAKE128_RATE);
    3524:	0a800693          	li	a3,168
    3528:	c81ff0ef          	jal	31a8 <keccak_squeezeblocks>
}
    352c:	00c12083          	lw	ra,12(sp)
    3530:	01010113          	addi	sp,sp,16
    3534:	00008067          	ret

00003538 <pqcrystals_fips202_ref_shake256_init>:
*
* Arguments:   - keccak_state *state: pointer to (uninitialized)
*                                     Keccak state
**************************************************/
void shake256_init(keccak_state *state)
{
    3538:	ff010113          	addi	sp,sp,-16
    353c:	00112623          	sw	ra,12(sp)
  keccak_init(state);
    3540:	94dff0ef          	jal	2e8c <keccak_init>
}
    3544:	00c12083          	lw	ra,12(sp)
    3548:	01010113          	addi	sp,sp,16
    354c:	00008067          	ret

00003550 <pqcrystals_fips202_ref_shake256_absorb>:
*                                     Keccak state
*              - const uint8_t *in:   pointer to input to be absorbed into s
*              - size_t inlen:        length of input in bytes
**************************************************/
void shake256_absorb(keccak_state *state, const uint8_t *in, size_t inlen)
{
    3550:	ff010113          	addi	sp,sp,-16
    3554:	00112623          	sw	ra,12(sp)
    3558:	00812423          	sw	s0,8(sp)
    355c:	00050413          	mv	s0,a0
    3560:	00058693          	mv	a3,a1
    3564:	00060713          	mv	a4,a2
  state->pos = keccak_absorb(state->s, SHAKE256_RATE, state->pos, in, inlen);
    3568:	0c852603          	lw	a2,200(a0)
    356c:	08800593          	li	a1,136
    3570:	945ff0ef          	jal	2eb4 <keccak_absorb>
    3574:	0ca42423          	sw	a0,200(s0)
}
    3578:	00c12083          	lw	ra,12(sp)
    357c:	00812403          	lw	s0,8(sp)
    3580:	01010113          	addi	sp,sp,16
    3584:	00008067          	ret

00003588 <pqcrystals_fips202_ref_shake256_finalize>:
* Description: Finalize absorb step of the SHAKE256 XOF.
*
* Arguments:   - keccak_state *state: pointer to Keccak state
**************************************************/
void shake256_finalize(keccak_state *state)
{
    3588:	ff010113          	addi	sp,sp,-16
    358c:	00112623          	sw	ra,12(sp)
    3590:	00812423          	sw	s0,8(sp)
    3594:	00050413          	mv	s0,a0
  keccak_finalize(state->s, SHAKE256_RATE, state->pos, 0x1F);
    3598:	01f00693          	li	a3,31
    359c:	0c852603          	lw	a2,200(a0)
    35a0:	08800593          	li	a1,136
    35a4:	b95ff0ef          	jal	3138 <keccak_finalize>
  state->pos = 0;
    35a8:	0c042423          	sw	zero,200(s0)
}
    35ac:	00c12083          	lw	ra,12(sp)
    35b0:	00812403          	lw	s0,8(sp)
    35b4:	01010113          	addi	sp,sp,16
    35b8:	00008067          	ret

000035bc <pqcrystals_fips202_ref_shake256_squeezeblocks>:
*              - size_t nblocks:  number of blocks to be squeezed
*                                 (written to output)
*              - keccak_state *s: pointer to input/output Keccak state
**************************************************/
void shake256_squeezeblocks(uint8_t *out, size_t nblocks, keccak_state *state)
{
    35bc:	ff010113          	addi	sp,sp,-16
    35c0:	00112623          	sw	ra,12(sp)
  keccak_squeezeblocks(out, nblocks, state->s, SHAKE256_RATE);
    35c4:	08800693          	li	a3,136
    35c8:	be1ff0ef          	jal	31a8 <keccak_squeezeblocks>
}
    35cc:	00c12083          	lw	ra,12(sp)
    35d0:	01010113          	addi	sp,sp,16
    35d4:	00008067          	ret

000035d8 <pqcrystals_fips202_ref_shake256_squeeze>:
*              - size_t outlen :  number of bytes to be squeezed
*                                 (written to output)
*              - keccak_state *s: pointer to input/output Keccak state
**************************************************/
void shake256_squeeze(uint8_t *out, size_t outlen, keccak_state *state)
{
    35d8:	ff010113          	addi	sp,sp,-16
    35dc:	00112623          	sw	ra,12(sp)
    35e0:	00812423          	sw	s0,8(sp)
    35e4:	00060413          	mv	s0,a2
  state->pos = keccak_squeeze(out, outlen, state->s, SHAKE256_RATE, state->pos);
    35e8:	0c862703          	lw	a4,200(a2)
    35ec:	08800693          	li	a3,136
    35f0:	c6dff0ef          	jal	325c <keccak_squeeze>
    35f4:	0ca42423          	sw	a0,200(s0)
}
    35f8:	00c12083          	lw	ra,12(sp)
    35fc:	00812403          	lw	s0,8(sp)
    3600:	01010113          	addi	sp,sp,16
    3604:	00008067          	ret

00003608 <pqcrystals_fips202_ref_shake256>:
*              - size_t outlen:     requested output length in bytes
*              - const uint8_t *in: pointer to input
*              - size_t inlen:      length of input in bytes
**************************************************/
void shake256(uint8_t *out, size_t outlen, const uint8_t *in, size_t inlen)
{
    3608:	f1010113          	addi	sp,sp,-240
    360c:	0e112623          	sw	ra,236(sp)
    3610:	0e812423          	sw	s0,232(sp)
    3614:	0e912223          	sw	s1,228(sp)
    3618:	0f212023          	sw	s2,224(sp)
    361c:	0d312e23          	sw	s3,220(sp)
    3620:	0d412c23          	sw	s4,216(sp)
    3624:	00050a13          	mv	s4,a0
    3628:	00058993          	mv	s3,a1
    362c:	00060913          	mv	s2,a2
    3630:	00068493          	mv	s1,a3
  keccak_init(state);
    3634:	00010513          	mv	a0,sp
    3638:	855ff0ef          	jal	2e8c <keccak_init>
  keccak_state state;

  shake256_init(&state);
  shake256_absorb(&state, in, inlen);
    363c:	00048613          	mv	a2,s1
    3640:	00090593          	mv	a1,s2
    3644:	00010513          	mv	a0,sp
    3648:	f09ff0ef          	jal	3550 <pqcrystals_fips202_ref_shake256_absorb>
  shake256_finalize(&state);
    364c:	00010513          	mv	a0,sp
    3650:	f39ff0ef          	jal	3588 <pqcrystals_fips202_ref_shake256_finalize>
  shake256_squeeze(out, outlen, &state);
    3654:	00010613          	mv	a2,sp
    3658:	00098593          	mv	a1,s3
    365c:	000a0513          	mv	a0,s4
    3660:	f79ff0ef          	jal	35d8 <pqcrystals_fips202_ref_shake256_squeeze>
}
    3664:	0ec12083          	lw	ra,236(sp)
    3668:	0e812403          	lw	s0,232(sp)
    366c:	0e412483          	lw	s1,228(sp)
    3670:	0e012903          	lw	s2,224(sp)
    3674:	0dc12983          	lw	s3,220(sp)
    3678:	0d812a03          	lw	s4,216(sp)
    367c:	0f010113          	addi	sp,sp,240
    3680:	00008067          	ret

00003684 <pqcrystals_dilithium2_ref_signature>:
int crypto_sign_signature(uint8_t *sig,
                          size_t *siglen,
                          const uint8_t *m,
                          size_t mlen,
                          const uint8_t *sk)
{
    3684:	a2010113          	addi	sp,sp,-1504
    3688:	5c112e23          	sw	ra,1500(sp)
    368c:	5c812c23          	sw	s0,1496(sp)
    3690:	5c912a23          	sw	s1,1492(sp)
    3694:	5d212823          	sw	s2,1488(sp)
    3698:	5d312623          	sw	s3,1484(sp)
    369c:	5d412423          	sw	s4,1480(sp)
    36a0:	5d512223          	sw	s5,1476(sp)
    36a4:	5d612023          	sw	s6,1472(sp)
    36a8:	5b712e23          	sw	s7,1468(sp)
    36ac:	5b812c23          	sw	s8,1464(sp)
    36b0:	5b912a23          	sw	s9,1460(sp)
    36b4:	5ba12823          	sw	s10,1456(sp)
    36b8:	5bb12623          	sw	s11,1452(sp)
    36bc:	ffff42b7          	lui	t0,0xffff4
    36c0:	00510133          	add	sp,sp,t0
    36c4:	00050a93          	mv	s5,a0
    36c8:	00058d93          	mv	s11,a1
    36cc:	00060a13          	mv	s4,a2
    36d0:	00068b13          	mv	s6,a3
  rho = seedbuf;
  tr = rho + SEEDBYTES;
  key = tr + CRHBYTES;
  mu = key + SEEDBYTES;
  rhoprime = mu + CRHBYTES;
  unpack_sk(rho, tr, key, &t0, &s1, &s2, sk);
    36d4:	000037b7          	lui	a5,0x3
    36d8:	4d078793          	addi	a5,a5,1232 # 34d0 <pqcrystals_fips202_ref_shake128_absorb+0x20>
    36dc:	00f10933          	add	s2,sp,a5
    36e0:	000077b7          	lui	a5,0x7
    36e4:	4d078793          	addi	a5,a5,1232 # 74d0 <_bss_end+0x3170>
    36e8:	00f109b3          	add	s3,sp,a5
    36ec:	000047b7          	lui	a5,0x4
    36f0:	4d078793          	addi	a5,a5,1232 # 44d0 <_bss_end+0x170>
    36f4:	00f104b3          	add	s1,sp,a5
    36f8:	0000cd37          	lui	s10,0xc
    36fc:	4d0d0793          	addi	a5,s10,1232 # c4d0 <_stack+0x4170>
    3700:	00f10bb3          	add	s7,sp,a5
    3704:	520d0793          	addi	a5,s10,1312
    3708:	00f10c33          	add	s8,sp,a5
    370c:	4f0d0793          	addi	a5,s10,1264
    3710:	00f10cb3          	add	s9,sp,a5
    3714:	00070813          	mv	a6,a4
    3718:	00090793          	mv	a5,s2
    371c:	00098713          	mv	a4,s3
    3720:	00048693          	mv	a3,s1
    3724:	000c0613          	mv	a2,s8
    3728:	000c8593          	mv	a1,s9
    372c:	000b8513          	mv	a0,s7
    3730:	3e4000ef          	jal	3b14 <pqcrystals_dilithium2_ref_upack_sk>

  /* Compute CRH(tr, msg) */
  shake256_init(&state);
    3734:	00010513          	mv	a0,sp
    3738:	e01ff0ef          	jal	3538 <pqcrystals_fips202_ref_shake256_init>
  shake256_absorb(&state, tr, CRHBYTES);
    373c:	03000613          	li	a2,48
    3740:	000c8593          	mv	a1,s9
    3744:	00010513          	mv	a0,sp
    3748:	e09ff0ef          	jal	3550 <pqcrystals_fips202_ref_shake256_absorb>
  shake256_absorb(&state, m, mlen);
    374c:	000b0613          	mv	a2,s6
    3750:	000a0593          	mv	a1,s4
    3754:	00010513          	mv	a0,sp
    3758:	df9ff0ef          	jal	3550 <pqcrystals_fips202_ref_shake256_absorb>
  shake256_finalize(&state);
    375c:	00010513          	mv	a0,sp
    3760:	e29ff0ef          	jal	3588 <pqcrystals_fips202_ref_shake256_finalize>
  shake256_squeeze(mu, CRHBYTES, &state);
    3764:	00010613          	mv	a2,sp
    3768:	03000593          	li	a1,48
    376c:	540d0793          	addi	a5,s10,1344
    3770:	00f10533          	add	a0,sp,a5
    3774:	e65ff0ef          	jal	35d8 <pqcrystals_fips202_ref_shake256_squeeze>

#ifdef DILITHIUM_RANDOMIZED_SIGNING
  randombytes(rhoprime, CRHBYTES);
#else
  crh(rhoprime, key, SEEDBYTES + CRHBYTES);
    3778:	05000693          	li	a3,80
    377c:	000c0613          	mv	a2,s8
    3780:	03000593          	li	a1,48
    3784:	570d0793          	addi	a5,s10,1392
    3788:	00f10533          	add	a0,sp,a5
    378c:	e7dff0ef          	jal	3608 <pqcrystals_fips202_ref_shake256>
#endif

  /* Expand matrix and transform vectors */
  polyvec_matrix_expand(mat, rho);
    3790:	000b8593          	mv	a1,s7
    3794:	00008c37          	lui	s8,0x8
    3798:	4d0c0793          	addi	a5,s8,1232 # 84d0 <_stack+0x170>
    379c:	00f10533          	add	a0,sp,a5
    37a0:	b5dfc0ef          	jal	2fc <pqcrystals_dilithium2_ref_polyvec_matrix_expand>
  polyvecl_ntt(&s1);
    37a4:	00098513          	mv	a0,s3
    37a8:	d21fc0ef          	jal	4c8 <pqcrystals_dilithium2_ref_polyvecl_ntt>
  polyveck_ntt(&s2);
    37ac:	00090513          	mv	a0,s2
    37b0:	8a8fd0ef          	jal	858 <pqcrystals_dilithium2_ref_polyveck_ntt>
  polyveck_ntt(&t0);
    37b4:	00048513          	mv	a0,s1
    37b8:	8a0fd0ef          	jal	858 <pqcrystals_dilithium2_ref_polyveck_ntt>
  uint16_t nonce = 0;
    37bc:	00000413          	li	s0,0

rej:
  /* Sample intermediate vector y */
  polyvecl_uniform_gamma1(&y, rhoprime, nonce++);
    37c0:	000067b7          	lui	a5,0x6
    37c4:	4d078713          	addi	a4,a5,1232 # 64d0 <_bss_end+0x2170>
    37c8:	00e10b33          	add	s6,sp,a4
  z = y;
    37cc:	00005737          	lui	a4,0x5
    37d0:	5a070693          	addi	a3,a4,1440 # 55a0 <_bss_end+0x1240>
    37d4:	00d10bb3          	add	s7,sp,a3
    37d8:	5a078793          	addi	a5,a5,1440
    37dc:	00f10a33          	add	s4,sp,a5
  polyvecl_ntt(&z);
    37e0:	4d070793          	addi	a5,a4,1232
    37e4:	00f10933          	add	s2,sp,a5

  /* Matrix-vector multiplication */
  polyvec_matrix_pointwise_montgomery(&w1, mat, &z);
    37e8:	4d0c0793          	addi	a5,s8,1232
    37ec:	00f10c33          	add	s8,sp,a5
    37f0:	000027b7          	lui	a5,0x2
    37f4:	4d078793          	addi	a5,a5,1232 # 24d0 <KeccakF1600_StatePermute+0xaf0>
    37f8:	00f109b3          	add	s3,sp,a5
  polyveck_reduce(&w1);
  polyveck_invntt_tomont(&w1);

  /* Decompose w and call the random oracle */
  polyveck_caddq(&w1);
  polyveck_decompose(&w1, &w0, &w1);
    37fc:	000017b7          	lui	a5,0x1
    3800:	4d078793          	addi	a5,a5,1232 # 14d0 <pqcrystals_dilithium2_ref_polyz_unpack+0xa4>
    3804:	00f104b3          	add	s1,sp,a5
    3808:	0cc0006f          	j	38d4 <pqcrystals_dilithium2_ref_signature+0x250>
  if(polyvecl_chknorm(&z, GAMMA1 - BETA))
    goto rej;

  /* Check that subtracting cs2 does not change high bits of w and low bits
   * do not reveal secret information */
  polyveck_pointwise_poly_montgomery(&h, &cp, &s2);
    380c:	4d010c93          	addi	s9,sp,1232
    3810:	000037b7          	lui	a5,0x3
    3814:	4d078793          	addi	a5,a5,1232 # 34d0 <pqcrystals_fips202_ref_shake128_absorb+0x20>
    3818:	00f10633          	add	a2,sp,a5
    381c:	0d010593          	addi	a1,sp,208
    3820:	000c8513          	mv	a0,s9
    3824:	8b4fd0ef          	jal	8d8 <pqcrystals_dilithium2_ref_polyveck_pointwise_poly_montgomery>
  polyveck_invntt_tomont(&h);
    3828:	000c8513          	mv	a0,s9
    382c:	86cfd0ef          	jal	898 <pqcrystals_dilithium2_ref_polyveck_invntt_tomont>
  polyveck_sub(&w0, &w0, &h);
    3830:	000c8613          	mv	a2,s9
    3834:	00048593          	mv	a1,s1
    3838:	00048513          	mv	a0,s1
    383c:	fb5fc0ef          	jal	7f0 <pqcrystals_dilithium2_ref_polyveck_sub>
  polyveck_reduce(&w0);
    3840:	00048513          	mv	a0,s1
    3844:	ec5fc0ef          	jal	708 <pqcrystals_dilithium2_ref_polyveck_reduce>
  if(polyveck_chknorm(&w0, GAMMA2 - BETA))
    3848:	000175b7          	lui	a1,0x17
    384c:	3b258593          	addi	a1,a1,946 # 173b2 <_stack_start+0x73b6>
    3850:	00048513          	mv	a0,s1
    3854:	8ecfd0ef          	jal	940 <pqcrystals_dilithium2_ref_polyveck_chknorm>
    3858:	06051863          	bnez	a0,38c8 <pqcrystals_dilithium2_ref_signature+0x244>
    goto rej;

  /* Compute hints for w1 */
  polyveck_pointwise_poly_montgomery(&h, &cp, &t0);
    385c:	000047b7          	lui	a5,0x4
    3860:	4d078793          	addi	a5,a5,1232 # 44d0 <_bss_end+0x170>
    3864:	00f10633          	add	a2,sp,a5
    3868:	0d010593          	addi	a1,sp,208
    386c:	000c8513          	mv	a0,s9
    3870:	868fd0ef          	jal	8d8 <pqcrystals_dilithium2_ref_polyveck_pointwise_poly_montgomery>
  polyveck_invntt_tomont(&h);
    3874:	000c8513          	mv	a0,s9
    3878:	820fd0ef          	jal	898 <pqcrystals_dilithium2_ref_polyveck_invntt_tomont>
  polyveck_reduce(&h);
    387c:	000c8513          	mv	a0,s9
    3880:	e89fc0ef          	jal	708 <pqcrystals_dilithium2_ref_polyveck_reduce>
  if(polyveck_chknorm(&h, GAMMA2))
    3884:	000175b7          	lui	a1,0x17
    3888:	40058593          	addi	a1,a1,1024 # 17400 <_stack_start+0x7404>
    388c:	000c8513          	mv	a0,s9
    3890:	8b0fd0ef          	jal	940 <pqcrystals_dilithium2_ref_polyveck_chknorm>
    3894:	02051a63          	bnez	a0,38c8 <pqcrystals_dilithium2_ref_signature+0x244>
    goto rej;

  polyveck_add(&w0, &w0, &h);
    3898:	000c8613          	mv	a2,s9
    389c:	00048593          	mv	a1,s1
    38a0:	00048513          	mv	a0,s1
    38a4:	ee5fc0ef          	jal	788 <pqcrystals_dilithium2_ref_polyveck_add>
  polyveck_caddq(&w0);
    38a8:	00048513          	mv	a0,s1
    38ac:	e9dfc0ef          	jal	748 <pqcrystals_dilithium2_ref_polyveck_caddq>
  n = polyveck_make_hint(&h, &w0, &w1);
    38b0:	00098613          	mv	a2,s3
    38b4:	00048593          	mv	a1,s1
    38b8:	000c8513          	mv	a0,s9
    38bc:	948fd0ef          	jal	a04 <pqcrystals_dilithium2_ref_polyveck_make_hint>
  if(n > OMEGA)
    38c0:	05000793          	li	a5,80
    38c4:	16a7f063          	bgeu	a5,a0,3a24 <pqcrystals_dilithium2_ref_signature+0x3a0>
  polyvecl_uniform_gamma1(&y, rhoprime, nonce++);
    38c8:	00140413          	addi	s0,s0,1
    38cc:	01041413          	slli	s0,s0,0x10
    38d0:	01045413          	srli	s0,s0,0x10
    38d4:	00040613          	mv	a2,s0
    38d8:	0000c7b7          	lui	a5,0xc
    38dc:	57078793          	addi	a5,a5,1392 # c570 <_stack+0x4210>
    38e0:	00f105b3          	add	a1,sp,a5
    38e4:	000b0513          	mv	a0,s6
    38e8:	ac5fc0ef          	jal	3ac <pqcrystals_dilithium2_ref_polyvecl_uniform_gamma1>
  z = y;
    38ec:	f30b8713          	addi	a4,s7,-208
    38f0:	f30a0793          	addi	a5,s4,-208
    38f4:	7ffa0693          	addi	a3,s4,2047
    38f8:	73168693          	addi	a3,a3,1841
    38fc:	0007a503          	lw	a0,0(a5)
    3900:	0047a583          	lw	a1,4(a5)
    3904:	0087a603          	lw	a2,8(a5)
    3908:	00a72023          	sw	a0,0(a4)
    390c:	00b72223          	sw	a1,4(a4)
    3910:	00c72423          	sw	a2,8(a4)
    3914:	00c7a603          	lw	a2,12(a5)
    3918:	00c72623          	sw	a2,12(a4)
    391c:	01078793          	addi	a5,a5,16
    3920:	01070713          	addi	a4,a4,16
    3924:	fcd79ce3          	bne	a5,a3,38fc <pqcrystals_dilithium2_ref_signature+0x278>
  polyvecl_ntt(&z);
    3928:	00090513          	mv	a0,s2
    392c:	b9dfc0ef          	jal	4c8 <pqcrystals_dilithium2_ref_polyvecl_ntt>
  polyvec_matrix_pointwise_montgomery(&w1, mat, &z);
    3930:	00090613          	mv	a2,s2
    3934:	000c0593          	mv	a1,s8
    3938:	00098513          	mv	a0,s3
    393c:	d01fc0ef          	jal	63c <pqcrystals_dilithium2_ref_polyvec_matrix_pointwise_montgomery>
  polyveck_reduce(&w1);
    3940:	00098513          	mv	a0,s3
    3944:	dc5fc0ef          	jal	708 <pqcrystals_dilithium2_ref_polyveck_reduce>
  polyveck_invntt_tomont(&w1);
    3948:	00098513          	mv	a0,s3
    394c:	f4dfc0ef          	jal	898 <pqcrystals_dilithium2_ref_polyveck_invntt_tomont>
  polyveck_caddq(&w1);
    3950:	00098513          	mv	a0,s3
    3954:	df5fc0ef          	jal	748 <pqcrystals_dilithium2_ref_polyveck_caddq>
  polyveck_decompose(&w1, &w0, &w1);
    3958:	00098613          	mv	a2,s3
    395c:	00048593          	mv	a1,s1
    3960:	00098513          	mv	a0,s3
    3964:	838fd0ef          	jal	99c <pqcrystals_dilithium2_ref_polyveck_decompose>
  polyveck_pack_w1(sig, &w1);
    3968:	00098593          	mv	a1,s3
    396c:	000a8513          	mv	a0,s5
    3970:	910fd0ef          	jal	a80 <pqcrystals_dilithium2_ref_polyveck_pack_w1>
  shake256_init(&state);
    3974:	00010513          	mv	a0,sp
    3978:	bc1ff0ef          	jal	3538 <pqcrystals_fips202_ref_shake256_init>
  shake256_absorb(&state, mu, CRHBYTES);
    397c:	03000613          	li	a2,48
    3980:	0000c7b7          	lui	a5,0xc
    3984:	54078793          	addi	a5,a5,1344 # c540 <_stack+0x41e0>
    3988:	00f105b3          	add	a1,sp,a5
    398c:	00010513          	mv	a0,sp
    3990:	bc1ff0ef          	jal	3550 <pqcrystals_fips202_ref_shake256_absorb>
  shake256_absorb(&state, sig, K*POLYW1_PACKEDBYTES);
    3994:	30000613          	li	a2,768
    3998:	000a8593          	mv	a1,s5
    399c:	00010513          	mv	a0,sp
    39a0:	bb1ff0ef          	jal	3550 <pqcrystals_fips202_ref_shake256_absorb>
  shake256_finalize(&state);
    39a4:	00010513          	mv	a0,sp
    39a8:	be1ff0ef          	jal	3588 <pqcrystals_fips202_ref_shake256_finalize>
  shake256_squeeze(sig, SEEDBYTES, &state);
    39ac:	00010613          	mv	a2,sp
    39b0:	02000593          	li	a1,32
    39b4:	000a8513          	mv	a0,s5
    39b8:	c21ff0ef          	jal	35d8 <pqcrystals_fips202_ref_shake256_squeeze>
  poly_challenge(&cp, sig);
    39bc:	0d010c93          	addi	s9,sp,208
    39c0:	000a8593          	mv	a1,s5
    39c4:	000c8513          	mv	a0,s9
    39c8:	dacfd0ef          	jal	f74 <pqcrystals_dilithium2_ref_poly_challenge>
  poly_ntt(&cp);
    39cc:	000c8513          	mv	a0,s9
    39d0:	a5cfd0ef          	jal	c2c <pqcrystals_dilithium2_ref_poly_ntt>
  polyvecl_pointwise_poly_montgomery(&z, &cp, &s1);
    39d4:	000077b7          	lui	a5,0x7
    39d8:	4d078793          	addi	a5,a5,1232 # 74d0 <_bss_end+0x3170>
    39dc:	00f10633          	add	a2,sp,a5
    39e0:	000c8593          	mv	a1,s9
    39e4:	00090513          	mv	a0,s2
    39e8:	b61fc0ef          	jal	548 <pqcrystals_dilithium2_ref_polyvecl_pointwise_poly_montgomery>
  polyvecl_invntt_tomont(&z);
    39ec:	00090513          	mv	a0,s2
    39f0:	b19fc0ef          	jal	508 <pqcrystals_dilithium2_ref_polyvecl_invntt_tomont>
  polyvecl_add(&z, &z, &y);
    39f4:	000b0613          	mv	a2,s6
    39f8:	00090593          	mv	a1,s2
    39fc:	00090513          	mv	a0,s2
    3a00:	a61fc0ef          	jal	460 <pqcrystals_dilithium2_ref_polyvecl_add>
  polyvecl_reduce(&z);
    3a04:	00090513          	mv	a0,s2
    3a08:	a19fc0ef          	jal	420 <pqcrystals_dilithium2_ref_polyvecl_reduce>
  if(polyvecl_chknorm(&z, GAMMA1 - BETA))
    3a0c:	000205b7          	lui	a1,0x20
    3a10:	fb258593          	addi	a1,a1,-78 # 1ffb2 <_stack_start+0xffb6>
    3a14:	00090513          	mv	a0,s2
    3a18:	c95fc0ef          	jal	6ac <pqcrystals_dilithium2_ref_polyvecl_chknorm>
    3a1c:	de0508e3          	beqz	a0,380c <pqcrystals_dilithium2_ref_signature+0x188>
    3a20:	ea9ff06f          	j	38c8 <pqcrystals_dilithium2_ref_signature+0x244>
    goto rej;

  /* Write signature */
  pack_sig(sig, sig, &z, &h);
    3a24:	000c8693          	mv	a3,s9
    3a28:	000057b7          	lui	a5,0x5
    3a2c:	4d078793          	addi	a5,a5,1232 # 54d0 <_bss_end+0x1170>
    3a30:	00f10633          	add	a2,sp,a5
    3a34:	000a8593          	mv	a1,s5
    3a38:	000a8513          	mv	a0,s5
    3a3c:	1d8000ef          	jal	3c14 <pqcrystals_dilithium2_ref_pack_sig>
  *siglen = CRYPTO_BYTES;
    3a40:	000017b7          	lui	a5,0x1
    3a44:	97478793          	addi	a5,a5,-1676 # 974 <pqcrystals_dilithium2_ref_polyveck_chknorm+0x34>
    3a48:	00fda023          	sw	a5,0(s11)
  return 0;
}
    3a4c:	00000513          	li	a0,0
    3a50:	0000c2b7          	lui	t0,0xc
    3a54:	00510133          	add	sp,sp,t0
    3a58:	5dc12083          	lw	ra,1500(sp)
    3a5c:	5d812403          	lw	s0,1496(sp)
    3a60:	5d412483          	lw	s1,1492(sp)
    3a64:	5d012903          	lw	s2,1488(sp)
    3a68:	5cc12983          	lw	s3,1484(sp)
    3a6c:	5c812a03          	lw	s4,1480(sp)
    3a70:	5c412a83          	lw	s5,1476(sp)
    3a74:	5c012b03          	lw	s6,1472(sp)
    3a78:	5bc12b83          	lw	s7,1468(sp)
    3a7c:	5b812c03          	lw	s8,1464(sp)
    3a80:	5b412c83          	lw	s9,1460(sp)
    3a84:	5b012d03          	lw	s10,1456(sp)
    3a88:	5ac12d83          	lw	s11,1452(sp)
    3a8c:	5e010113          	addi	sp,sp,1504
    3a90:	00008067          	ret

00003a94 <pqcrystals_dilithium2_ref>:
int crypto_sign(uint8_t *sm,
                size_t *smlen,
                const uint8_t *m,
                size_t mlen,
                const uint8_t *sk)
{
    3a94:	ff010113          	addi	sp,sp,-16
    3a98:	00112623          	sw	ra,12(sp)
    3a9c:	00812423          	sw	s0,8(sp)
    3aa0:	00912223          	sw	s1,4(sp)
    3aa4:	00058493          	mv	s1,a1
    3aa8:	00068413          	mv	s0,a3
  size_t i;

  for(i = 0; i < mlen; ++i)
    3aac:	02068863          	beqz	a3,3adc <pqcrystals_dilithium2_ref+0x48>
    3ab0:	fff60793          	addi	a5,a2,-1
    3ab4:	00d787b3          	add	a5,a5,a3
    3ab8:	00d50833          	add	a6,a0,a3
    3abc:	7ff80813          	addi	a6,a6,2047 # 207ff <_stack_start+0x10803>
    3ac0:	17480813          	addi	a6,a6,372
    3ac4:	fff60613          	addi	a2,a2,-1
    sm[CRYPTO_BYTES + mlen - 1 - i] = m[mlen - 1 - i];
    3ac8:	0007c883          	lbu	a7,0(a5)
    3acc:	01180023          	sb	a7,0(a6)
  for(i = 0; i < mlen; ++i)
    3ad0:	fff78793          	addi	a5,a5,-1
    3ad4:	fff80813          	addi	a6,a6,-1
    3ad8:	fec798e3          	bne	a5,a2,3ac8 <pqcrystals_dilithium2_ref+0x34>
  crypto_sign_signature(sm, smlen, sm + CRYPTO_BYTES, mlen, sk);
    3adc:	00040693          	mv	a3,s0
    3ae0:	7ff50613          	addi	a2,a0,2047
    3ae4:	17560613          	addi	a2,a2,373
    3ae8:	00048593          	mv	a1,s1
    3aec:	b99ff0ef          	jal	3684 <pqcrystals_dilithium2_ref_signature>
  *smlen += mlen;
    3af0:	0004a783          	lw	a5,0(s1)
    3af4:	008787b3          	add	a5,a5,s0
    3af8:	00f4a023          	sw	a5,0(s1)
  return 0;
}
    3afc:	00000513          	li	a0,0
    3b00:	00c12083          	lw	ra,12(sp)
    3b04:	00812403          	lw	s0,8(sp)
    3b08:	00412483          	lw	s1,4(sp)
    3b0c:	01010113          	addi	sp,sp,16
    3b10:	00008067          	ret

00003b14 <pqcrystals_dilithium2_ref_upack_sk>:
               uint8_t key[SEEDBYTES],
               polyveck *t0,
               polyvecl *s1,
               polyveck *s2,
               const uint8_t sk[CRYPTO_SECRETKEYBYTES])
{
    3b14:	fe010113          	addi	sp,sp,-32
    3b18:	00112e23          	sw	ra,28(sp)
    3b1c:	00812c23          	sw	s0,24(sp)
    3b20:	00912a23          	sw	s1,20(sp)
    3b24:	01212823          	sw	s2,16(sp)
    3b28:	01312623          	sw	s3,12(sp)
    3b2c:	01412423          	sw	s4,8(sp)
    3b30:	01512223          	sw	s5,4(sp)
    3b34:	00068a13          	mv	s4,a3
    3b38:	00070993          	mv	s3,a4
    3b3c:	00078a93          	mv	s5,a5
    3b40:	00080413          	mv	s0,a6
  unsigned int i;

  for(i = 0; i < SEEDBYTES; ++i)
    3b44:	02080313          	addi	t1,a6,32
{
    3b48:	00080893          	mv	a7,a6
    rho[i] = sk[i];
    3b4c:	0008c783          	lbu	a5,0(a7) # 20000 <_stack_start+0x10004>
    3b50:	00f50023          	sb	a5,0(a0)
  for(i = 0; i < SEEDBYTES; ++i)
    3b54:	00188893          	addi	a7,a7,1
    3b58:	00150513          	addi	a0,a0,1
    3b5c:	fe6898e3          	bne	a7,t1,3b4c <pqcrystals_dilithium2_ref_upack_sk+0x38>
    3b60:	04040893          	addi	a7,s0,64
  sk += SEEDBYTES;

  for(i = 0; i < SEEDBYTES; ++i)
    key[i] = sk[i];
    3b64:	00034783          	lbu	a5,0(t1)
    3b68:	00f60023          	sb	a5,0(a2)
  for(i = 0; i < SEEDBYTES; ++i)
    3b6c:	00130313          	addi	t1,t1,1
    3b70:	00160613          	addi	a2,a2,1
    3b74:	ff1318e3          	bne	t1,a7,3b64 <pqcrystals_dilithium2_ref_upack_sk+0x50>
    3b78:	07040493          	addi	s1,s0,112
  sk += SEEDBYTES;

  for(i = 0; i < CRHBYTES; ++i)
    tr[i] = sk[i];
    3b7c:	0008c783          	lbu	a5,0(a7)
    3b80:	00f58023          	sb	a5,0(a1)
  for(i = 0; i < CRHBYTES; ++i)
    3b84:	00188893          	addi	a7,a7,1
    3b88:	00158593          	addi	a1,a1,1
    3b8c:	fe9898e3          	bne	a7,s1,3b7c <pqcrystals_dilithium2_ref_upack_sk+0x68>
    3b90:	1f040913          	addi	s2,s0,496
  sk += CRHBYTES;

  for(i=0; i < L; ++i)
    polyeta_unpack(&s1->vec[i], sk + i*POLYETA_PACKEDBYTES);
    3b94:	00048593          	mv	a1,s1
    3b98:	00098513          	mv	a0,s3
    3b9c:	d7cfd0ef          	jal	1118 <pqcrystals_dilithium2_ref_polyeta_unpack>
  for(i=0; i < L; ++i)
    3ba0:	40098993          	addi	s3,s3,1024
    3ba4:	06048493          	addi	s1,s1,96
    3ba8:	ff2496e3          	bne	s1,s2,3b94 <pqcrystals_dilithium2_ref_upack_sk+0x80>
    3bac:	000a8993          	mv	s3,s5
    3bb0:	37040493          	addi	s1,s0,880
  sk += L*POLYETA_PACKEDBYTES;

  for(i=0; i < K; ++i)
    polyeta_unpack(&s2->vec[i], sk + i*POLYETA_PACKEDBYTES);
    3bb4:	00090593          	mv	a1,s2
    3bb8:	00098513          	mv	a0,s3
    3bbc:	d5cfd0ef          	jal	1118 <pqcrystals_dilithium2_ref_polyeta_unpack>
  for(i=0; i < K; ++i)
    3bc0:	40098993          	addi	s3,s3,1024
    3bc4:	06090913          	addi	s2,s2,96
    3bc8:	fe9916e3          	bne	s2,s1,3bb4 <pqcrystals_dilithium2_ref_upack_sk+0xa0>
    3bcc:	000a0913          	mv	s2,s4
    3bd0:	7ff40413          	addi	s0,s0,2047
    3bd4:	1f140413          	addi	s0,s0,497
  sk += K*POLYETA_PACKEDBYTES;

  for(i=0; i < K; ++i)
    polyt0_unpack(&t0->vec[i], sk + i*POLYT0_PACKEDBYTES);
    3bd8:	00048593          	mv	a1,s1
    3bdc:	00090513          	mv	a0,s2
    3be0:	e20fd0ef          	jal	1200 <pqcrystals_dilithium2_ref_polyt0_unpack>
  for(i=0; i < K; ++i)
    3be4:	40090913          	addi	s2,s2,1024
    3be8:	1a048493          	addi	s1,s1,416
    3bec:	fe9416e3          	bne	s0,s1,3bd8 <pqcrystals_dilithium2_ref_upack_sk+0xc4>
}
    3bf0:	01c12083          	lw	ra,28(sp)
    3bf4:	01812403          	lw	s0,24(sp)
    3bf8:	01412483          	lw	s1,20(sp)
    3bfc:	01012903          	lw	s2,16(sp)
    3c00:	00c12983          	lw	s3,12(sp)
    3c04:	00812a03          	lw	s4,8(sp)
    3c08:	00412a83          	lw	s5,4(sp)
    3c0c:	02010113          	addi	sp,sp,32
    3c10:	00008067          	ret

00003c14 <pqcrystals_dilithium2_ref_pack_sig>:
**************************************************/
void pack_sig(uint8_t sig[CRYPTO_BYTES],
              const uint8_t c[SEEDBYTES],
              const polyvecl *z,
              const polyveck *h)
{
    3c14:	fe010113          	addi	sp,sp,-32
    3c18:	00112e23          	sw	ra,28(sp)
    3c1c:	00812c23          	sw	s0,24(sp)
    3c20:	00912a23          	sw	s1,20(sp)
    3c24:	01212823          	sw	s2,16(sp)
    3c28:	01312623          	sw	s3,12(sp)
    3c2c:	01412423          	sw	s4,8(sp)
    3c30:	00050493          	mv	s1,a0
    3c34:	00060993          	mv	s3,a2
    3c38:	00068a13          	mv	s4,a3
  unsigned int i, j, k;

  for(i=0; i < SEEDBYTES; ++i)
    3c3c:	00058793          	mv	a5,a1
    3c40:	02058513          	addi	a0,a1,32
{
    3c44:	00048713          	mv	a4,s1
    sig[i] = c[i];
    3c48:	0007c583          	lbu	a1,0(a5)
    3c4c:	00b70023          	sb	a1,0(a4)
  for(i=0; i < SEEDBYTES; ++i)
    3c50:	00178793          	addi	a5,a5,1
    3c54:	00170713          	addi	a4,a4,1
    3c58:	fea798e3          	bne	a5,a0,3c48 <pqcrystals_dilithium2_ref_pack_sig+0x34>
    3c5c:	02048913          	addi	s2,s1,32
    3c60:	7ff48413          	addi	s0,s1,2047
    3c64:	12140413          	addi	s0,s0,289
  sig += SEEDBYTES;

  for(i = 0; i < L; ++i)
    polyz_pack(sig + i*POLYZ_PACKEDBYTES, &z->vec[i]);
    3c68:	00098593          	mv	a1,s3
    3c6c:	00090513          	mv	a0,s2
    3c70:	f24fd0ef          	jal	1394 <pqcrystals_dilithium2_ref_polyz_pack>
  for(i = 0; i < L; ++i)
    3c74:	24090913          	addi	s2,s2,576
    3c78:	40098993          	addi	s3,s3,1024
    3c7c:	fe8916e3          	bne	s2,s0,3c68 <pqcrystals_dilithium2_ref_pack_sig+0x54>
  sig += L*POLYZ_PACKEDBYTES;

  /* Encode h */
  for(i = 0; i < OMEGA + K; ++i)
    3c80:	7ff48793          	addi	a5,s1,2047
    3c84:	17578793          	addi	a5,a5,373
    sig[i] = 0;
    3c88:	00040023          	sb	zero,0(s0)
  for(i = 0; i < OMEGA + K; ++i)
    3c8c:	00140413          	addi	s0,s0,1
    3c90:	fef41ce3          	bne	s0,a5,3c88 <pqcrystals_dilithium2_ref_pack_sig+0x74>
    3c94:	7ff48893          	addi	a7,s1,2047
    3c98:	17188893          	addi	a7,a7,369
    3c9c:	000a0813          	mv	a6,s4
    3ca0:	000017b7          	lui	a5,0x1
    3ca4:	00fa0333          	add	t1,s4,a5

  k = 0;
    3ca8:	00000613          	li	a2,0
  for(i = 0; i < K; ++i) {
    for(j = 0; j < N; ++j)
      if(h->vec[i].coeffs[j] != 0)
        sig[k++] = j;
    3cac:	00078513          	mv	a0,a5
    for(j = 0; j < N; ++j)
    3cb0:	10000593          	li	a1,256
    3cb4:	03c0006f          	j	3cf0 <pqcrystals_dilithium2_ref_pack_sig+0xdc>
    3cb8:	00178793          	addi	a5,a5,1 # 1001 <pqcrystals_dilithium2_ref_poly_challenge+0x8d>
    3cbc:	00470713          	addi	a4,a4,4
    3cc0:	02b78063          	beq	a5,a1,3ce0 <pqcrystals_dilithium2_ref_pack_sig+0xcc>
      if(h->vec[i].coeffs[j] != 0)
    3cc4:	00072683          	lw	a3,0(a4)
    3cc8:	fe0688e3          	beqz	a3,3cb8 <pqcrystals_dilithium2_ref_pack_sig+0xa4>
        sig[k++] = j;
    3ccc:	00c486b3          	add	a3,s1,a2
    3cd0:	00d506b3          	add	a3,a0,a3
    3cd4:	92f68023          	sb	a5,-1760(a3)
    3cd8:	00160613          	addi	a2,a2,1
    3cdc:	fddff06f          	j	3cb8 <pqcrystals_dilithium2_ref_pack_sig+0xa4>

    sig[OMEGA + i] = k;
    3ce0:	00c88023          	sb	a2,0(a7)
  for(i = 0; i < K; ++i) {
    3ce4:	00188893          	addi	a7,a7,1
    3ce8:	40080813          	addi	a6,a6,1024
    3cec:	00680863          	beq	a6,t1,3cfc <pqcrystals_dilithium2_ref_pack_sig+0xe8>
{
    3cf0:	00080713          	mv	a4,a6
    for(j = 0; j < N; ++j)
    3cf4:	00000793          	li	a5,0
    3cf8:	fcdff06f          	j	3cc4 <pqcrystals_dilithium2_ref_pack_sig+0xb0>
  }
}
    3cfc:	01c12083          	lw	ra,28(sp)
    3d00:	01812403          	lw	s0,24(sp)
    3d04:	01412483          	lw	s1,20(sp)
    3d08:	01012903          	lw	s2,16(sp)
    3d0c:	00c12983          	lw	s3,12(sp)
    3d10:	00812a03          	lw	s4,8(sp)
    3d14:	02010113          	addi	sp,sp,32
    3d18:	00008067          	ret

00003d1c <pqcrystals_dilithium2_ref_decompose>:
* Arguments:   - int32_t a: input element
*              - int32_t *a0: pointer to output element a0
*
* Returns a1.
**************************************************/
int32_t decompose(int32_t *a0, int32_t a) {
    3d1c:	00050693          	mv	a3,a0
  int32_t a1;

  a1  = (a + 127) >> 7;
    3d20:	07f58713          	addi	a4,a1,127
    3d24:	40775713          	srai	a4,a4,0x7
#if GAMMA2 == (Q-1)/32
  a1  = (a1*1025 + (1 << 21)) >> 22;
  a1 &= 15;
#elif GAMMA2 == (Q-1)/88
  a1  = (a1*11275 + (1 << 23)) >> 24;
    3d28:	000037b7          	lui	a5,0x3
    3d2c:	c0b78793          	addi	a5,a5,-1013 # 2c0b <KeccakF1600_StatePermute+0x122b>
    3d30:	02f70733          	mul	a4,a4,a5
    3d34:	008007b7          	lui	a5,0x800
    3d38:	00f70733          	add	a4,a4,a5
    3d3c:	41875713          	srai	a4,a4,0x18
  a1 ^= ((43 - a1) >> 31) & a1;
    3d40:	02b00793          	li	a5,43
    3d44:	40e787b3          	sub	a5,a5,a4
    3d48:	41f7d793          	srai	a5,a5,0x1f
    3d4c:	fff7c793          	not	a5,a5
    3d50:	00e7f533          	and	a0,a5,a4
#endif

  *a0  = a - a1*2*GAMMA2;
    3d54:	fffd27b7          	lui	a5,0xfffd2
    3d58:	80078793          	addi	a5,a5,-2048 # fffd1800 <_stack_start+0xfffc1804>
    3d5c:	02f507b3          	mul	a5,a0,a5
    3d60:	00b785b3          	add	a1,a5,a1
  *a0 -= (((Q-1)/2 - *a0) >> 31) & Q;
    3d64:	003ff7b7          	lui	a5,0x3ff
    3d68:	40b787b3          	sub	a5,a5,a1
    3d6c:	41f7d793          	srai	a5,a5,0x1f
    3d70:	007fe737          	lui	a4,0x7fe
    3d74:	00170713          	addi	a4,a4,1 # 7fe001 <_stack_start+0x7ee005>
    3d78:	00e7f7b3          	and	a5,a5,a4
    3d7c:	40f585b3          	sub	a1,a1,a5
    3d80:	00b6a023          	sw	a1,0(a3)
  return a1;
}
    3d84:	00008067          	ret

00003d88 <pqcrystals_dilithium2_ref_make_hint>:
*              - int32_t a1: high bits of input element
*
* Returns 1 if overflow.
**************************************************/
unsigned int make_hint(int32_t a0, int32_t a1) {
  if(a0 <= GAMMA2 || a0 > Q - GAMMA2 || (a0 == Q - GAMMA2 && a1 == 0))
    3d88:	fffe97b7          	lui	a5,0xfffe9
    3d8c:	bff78793          	addi	a5,a5,-1025 # fffe8bff <_stack_start+0xfffd8c03>
    3d90:	00f507b3          	add	a5,a0,a5
    3d94:	007d0737          	lui	a4,0x7d0
    3d98:	80070713          	addi	a4,a4,-2048 # 7cf800 <_stack_start+0x7bf804>
    3d9c:	02f76263          	bltu	a4,a5,3dc0 <pqcrystals_dilithium2_ref_make_hint+0x38>
    3da0:	ff8197b7          	lui	a5,0xff819
    3da4:	3ff78793          	addi	a5,a5,1023 # ff8193ff <_stack_start+0xff809403>
    3da8:	00f50533          	add	a0,a0,a5
    3dac:	00153513          	seqz	a0,a0
    3db0:	0015b593          	seqz	a1,a1
    3db4:	00b57533          	and	a0,a0,a1
    3db8:	00154513          	xori	a0,a0,1
    3dbc:	00008067          	ret
    return 0;
    3dc0:	00000513          	li	a0,0

  return 1;
}
    3dc4:	00008067          	ret

00003dc8 <pqcrystals_dilithium2_ref_dilithium_shake128_stream_init>:
#include "fips202.h"

void dilithium_shake128_stream_init(keccak_state *state,
                                    const uint8_t seed[SEEDBYTES],
                                    uint16_t nonce)
{
    3dc8:	fe010113          	addi	sp,sp,-32
    3dcc:	00112e23          	sw	ra,28(sp)
    3dd0:	00812c23          	sw	s0,24(sp)
    3dd4:	00912a23          	sw	s1,20(sp)
    3dd8:	00050413          	mv	s0,a0
    3ddc:	00058493          	mv	s1,a1
  uint8_t t[2];
  t[0] = nonce;
    3de0:	00c10623          	sb	a2,12(sp)
  t[1] = nonce >> 8;
    3de4:	00865613          	srli	a2,a2,0x8
    3de8:	00c106a3          	sb	a2,13(sp)

  shake128_init(state);
    3dec:	eacff0ef          	jal	3498 <pqcrystals_fips202_ref_shake128_init>
  shake128_absorb(state, seed, SEEDBYTES);
    3df0:	02000613          	li	a2,32
    3df4:	00048593          	mv	a1,s1
    3df8:	00040513          	mv	a0,s0
    3dfc:	eb4ff0ef          	jal	34b0 <pqcrystals_fips202_ref_shake128_absorb>
  shake128_absorb(state, t, 2);
    3e00:	00200613          	li	a2,2
    3e04:	00c10593          	addi	a1,sp,12
    3e08:	00040513          	mv	a0,s0
    3e0c:	ea4ff0ef          	jal	34b0 <pqcrystals_fips202_ref_shake128_absorb>
  shake128_finalize(state);
    3e10:	00040513          	mv	a0,s0
    3e14:	ed4ff0ef          	jal	34e8 <pqcrystals_fips202_ref_shake128_finalize>
}
    3e18:	01c12083          	lw	ra,28(sp)
    3e1c:	01812403          	lw	s0,24(sp)
    3e20:	01412483          	lw	s1,20(sp)
    3e24:	02010113          	addi	sp,sp,32
    3e28:	00008067          	ret

00003e2c <pqcrystals_dilithium2_ref_dilithium_shake256_stream_init>:

void dilithium_shake256_stream_init(keccak_state *state,
                                    const uint8_t seed[CRHBYTES],
                                    uint16_t nonce)
{
    3e2c:	fe010113          	addi	sp,sp,-32
    3e30:	00112e23          	sw	ra,28(sp)
    3e34:	00812c23          	sw	s0,24(sp)
    3e38:	00912a23          	sw	s1,20(sp)
    3e3c:	00050413          	mv	s0,a0
    3e40:	00058493          	mv	s1,a1
  uint8_t t[2];
  t[0] = nonce;
    3e44:	00c10623          	sb	a2,12(sp)
  t[1] = nonce >> 8;
    3e48:	00865613          	srli	a2,a2,0x8
    3e4c:	00c106a3          	sb	a2,13(sp)

  shake256_init(state);
    3e50:	ee8ff0ef          	jal	3538 <pqcrystals_fips202_ref_shake256_init>
  shake256_absorb(state, seed, CRHBYTES);
    3e54:	03000613          	li	a2,48
    3e58:	00048593          	mv	a1,s1
    3e5c:	00040513          	mv	a0,s0
    3e60:	ef0ff0ef          	jal	3550 <pqcrystals_fips202_ref_shake256_absorb>
  shake256_absorb(state, t, 2);
    3e64:	00200613          	li	a2,2
    3e68:	00c10593          	addi	a1,sp,12
    3e6c:	00040513          	mv	a0,s0
    3e70:	ee0ff0ef          	jal	3550 <pqcrystals_fips202_ref_shake256_absorb>
  shake256_finalize(state);
    3e74:	00040513          	mv	a0,s0
    3e78:	f10ff0ef          	jal	3588 <pqcrystals_fips202_ref_shake256_finalize>
}
    3e7c:	01c12083          	lw	ra,28(sp)
    3e80:	01812403          	lw	s0,24(sp)
    3e84:	01412483          	lw	s1,20(sp)
    3e88:	02010113          	addi	sp,sp,32
    3e8c:	00008067          	ret

00003e90 <__CTOR_LIST__>:
	...

00003e98 <__CTOR_END__>:
	...
